

Microchip MPLAB XC8 Assembler V2.35 build 20211206165544 
                                                                                               Fri May 13 23:21:57 2022

Microchip MPLAB XC8 C Compiler v2.35 (Free license) build 20211206165544 Og1 
     1                           	processor	16F887
     2                           	pagewidth 120
     3                           	opt	flic
     4                           	psect	idataBANK1,global,class=CODE,delta=2,noexec
     5                           	psect	cinit,global,class=CODE,merge=1,delta=2
     6                           	psect	bssBANK0,global,class=BANK0,space=1,delta=1,noexec
     7                           	psect	bssBANK1,global,class=BANK1,space=1,delta=1,noexec
     8                           	psect	dataBANK1,global,class=BANK1,space=1,delta=1,noexec
     9                           	psect	cstackBANK1,global,class=BANK1,space=1,delta=1,noexec
    10                           	psect	cstackCOMMON,global,class=COMMON,space=1,delta=1,noexec
    11                           	psect	cstackBANK0,global,class=BANK0,space=1,delta=1,noexec
    12                           	psect	maintext,global,class=CODE,split=1,delta=2
    13                           	psect	text1,local,class=CODE,merge=1,delta=2
    14                           	psect	text2,local,class=CODE,merge=1,delta=2
    15                           	psect	intentry,global,class=CODE,delta=2
    16                           	psect	text3,local,class=CODE,merge=1,delta=2
    17                           	psect	text4,local,class=CODE,merge=1,delta=2,group=1
    18                           	psect	text5,local,class=CODE,merge=1,delta=2,group=1
    19                           	psect	text6,local,class=CODE,merge=1,delta=2,group=1
    20                           	psect	text7,local,class=CODE,merge=1,delta=2,group=1
    21                           	psect	text8,local,class=CODE,merge=1,delta=2,group=1
    22                           	psect	text9,local,class=CODE,merge=1,delta=2,group=1
    23                           	psect	idloc,global,abs,ovrld,class=IDLOC,space=5,delta=2,noexec
    24                           	psect	config,global,abs,ovrld,class=CONFIG,space=4,delta=2,noexec
    25                           	dabs	1,0x7E,2
    26  0000                     
    27                           ; Version 2.40
    28                           ; Generated 17/11/2021 GMT
    29                           ; 
    30                           ; Copyright © 2021, Microchip Technology Inc. and its subsidiaries ("Microchip")
    31                           ; All rights reserved.
    32                           ; 
    33                           ; This software is developed by Microchip Technology Inc. and its subsidiaries ("Microch
      +                          ip").
    34                           ; 
    35                           ; Redistribution and use in source and binary forms, with or without modification, are
    36                           ; permitted provided that the following conditions are met:
    37                           ; 
    38                           ;     1. Redistributions of source code must retain the above copyright notice, this lis
      +                          t of
    39                           ;        conditions and the following disclaimer.
    40                           ; 
    41                           ;     2. Redistributions in binary form must reproduce the above copyright notice, this 
      +                          list
    42                           ;        of conditions and the following disclaimer in the documentation and/or other
    43                           ;        materials provided with the distribution. Publication is not required when
    44                           ;        this file is used in an embedded application.
    45                           ; 
    46                           ;     3. Microchip's name may not be used to endorse or promote products derived from th
      +                          is
    47                           ;        software without specific prior written permission.
    48                           ; 
    49                           ; THIS SOFTWARE IS PROVIDED BY MICROCHIP "AS IS" AND ANY EXPRESS OR IMPLIED WARRANTIES,
    50                           ; INCLUDING, BUT NOT LIMITED TO, THE IMPLIED WARRANTIES OF MERCHANTABILITY AND FITNESS F
      +                          OR
    51                           ; PURPOSE ARE DISCLAIMED.  IN NO EVENT SHALL MICROCHIP BE LIABLE FOR ANY DIRECT, INDIREC
      +                          T,
    52                           ; INCIDENTAL, SPECIAL, EXEMPLARY, OR CONSEQUENTIAL DAMAGES (INCLUDING BUT NOT LIMITED TO
    53                           ; PROCUREMENT OF SUBSTITUTE GOODS OR SERVICES; LOSS OF USE, DATA OR PROFITS; OR BUSINESS
    54                           ; INTERRUPTION) HOWSOEVER CAUSED AND ON ANY THEORY OF LIABILITY, WHETHER IN CONTRACT, ST
      +                          RICT
    55                           ; LIABILITY, OR TORT (INCLUDING NEGLIGENCE OR OTHERWISE) ARISING IN ANY WAY OUT OF THE U
      +                          SE OF
    56                           ; THIS SOFTWARE, EVEN IF ADVISED OF THE POSSIBILITY OF SUCH DAMAGE.
    57                           ; 
    58                           ; 
    59                           ; Code-generator required, PIC16F887 Definitions
    60                           ; 
    61                           ; SFR Addresses
    62  0000                     	;# 
    63  0001                     	;# 
    64  0002                     	;# 
    65  0003                     	;# 
    66  0004                     	;# 
    67  0005                     	;# 
    68  0006                     	;# 
    69  0007                     	;# 
    70  0008                     	;# 
    71  0009                     	;# 
    72  000A                     	;# 
    73  000B                     	;# 
    74  000C                     	;# 
    75  000D                     	;# 
    76  000E                     	;# 
    77  000E                     	;# 
    78  000F                     	;# 
    79  0010                     	;# 
    80  0011                     	;# 
    81  0012                     	;# 
    82  0013                     	;# 
    83  0014                     	;# 
    84  0015                     	;# 
    85  0015                     	;# 
    86  0016                     	;# 
    87  0017                     	;# 
    88  0018                     	;# 
    89  0019                     	;# 
    90  001A                     	;# 
    91  001B                     	;# 
    92  001B                     	;# 
    93  001C                     	;# 
    94  001D                     	;# 
    95  001E                     	;# 
    96  001F                     	;# 
    97  0081                     	;# 
    98  0085                     	;# 
    99  0086                     	;# 
   100  0087                     	;# 
   101  0088                     	;# 
   102  0089                     	;# 
   103  008C                     	;# 
   104  008D                     	;# 
   105  008E                     	;# 
   106  008F                     	;# 
   107  0090                     	;# 
   108  0091                     	;# 
   109  0092                     	;# 
   110  0093                     	;# 
   111  0093                     	;# 
   112  0093                     	;# 
   113  0094                     	;# 
   114  0095                     	;# 
   115  0096                     	;# 
   116  0097                     	;# 
   117  0098                     	;# 
   118  0099                     	;# 
   119  009A                     	;# 
   120  009B                     	;# 
   121  009C                     	;# 
   122  009D                     	;# 
   123  009E                     	;# 
   124  009F                     	;# 
   125  0105                     	;# 
   126  0107                     	;# 
   127  0108                     	;# 
   128  0109                     	;# 
   129  010C                     	;# 
   130  010C                     	;# 
   131  010D                     	;# 
   132  010E                     	;# 
   133  010F                     	;# 
   134  0185                     	;# 
   135  0187                     	;# 
   136  0188                     	;# 
   137  0189                     	;# 
   138  018C                     	;# 
   139  018D                     	;# 
   140  0000                     	;# 
   141  0001                     	;# 
   142  0002                     	;# 
   143  0003                     	;# 
   144  0004                     	;# 
   145  0005                     	;# 
   146  0006                     	;# 
   147  0007                     	;# 
   148  0008                     	;# 
   149  0009                     	;# 
   150  000A                     	;# 
   151  000B                     	;# 
   152  000C                     	;# 
   153  000D                     	;# 
   154  000E                     	;# 
   155  000E                     	;# 
   156  000F                     	;# 
   157  0010                     	;# 
   158  0011                     	;# 
   159  0012                     	;# 
   160  0013                     	;# 
   161  0014                     	;# 
   162  0015                     	;# 
   163  0015                     	;# 
   164  0016                     	;# 
   165  0017                     	;# 
   166  0018                     	;# 
   167  0019                     	;# 
   168  001A                     	;# 
   169  001B                     	;# 
   170  001B                     	;# 
   171  001C                     	;# 
   172  001D                     	;# 
   173  001E                     	;# 
   174  001F                     	;# 
   175  0081                     	;# 
   176  0085                     	;# 
   177  0086                     	;# 
   178  0087                     	;# 
   179  0088                     	;# 
   180  0089                     	;# 
   181  008C                     	;# 
   182  008D                     	;# 
   183  008E                     	;# 
   184  008F                     	;# 
   185  0090                     	;# 
   186  0091                     	;# 
   187  0092                     	;# 
   188  0093                     	;# 
   189  0093                     	;# 
   190  0093                     	;# 
   191  0094                     	;# 
   192  0095                     	;# 
   193  0096                     	;# 
   194  0097                     	;# 
   195  0098                     	;# 
   196  0099                     	;# 
   197  009A                     	;# 
   198  009B                     	;# 
   199  009C                     	;# 
   200  009D                     	;# 
   201  009E                     	;# 
   202  009F                     	;# 
   203  0105                     	;# 
   204  0107                     	;# 
   205  0108                     	;# 
   206  0109                     	;# 
   207  010C                     	;# 
   208  010C                     	;# 
   209  010D                     	;# 
   210  010E                     	;# 
   211  010F                     	;# 
   212  0185                     	;# 
   213  0187                     	;# 
   214  0188                     	;# 
   215  0189                     	;# 
   216  018C                     	;# 
   217  018D                     	;# 
   218                           
   219                           	psect	idataBANK1
   220  07F4                     __pidataBANK1:
   221                           
   222                           ;initializer for _cont_slave
   223  07F4  34FF               	retlw	255
   224  000B                     _INTCONbits	set	11
   225  0014                     _SSPCONbits	set	20
   226  0007                     _PORTC	set	7
   227  0012                     _T2CONbits	set	18
   228  0017                     _CCP1CON	set	23
   229  0005                     _PORTA	set	5
   230  0008                     _PORTD	set	8
   231  0017                     _CCP1CONbits	set	23
   232  0015                     _CCPR1L	set	21
   233  0013                     _SSPBUF	set	19
   234  000C                     _PIR1bits	set	12
   235  008C                     _PIE1bits	set	140
   236  0094                     _SSPSTATbits	set	148
   237  0087                     _TRISC	set	135
   238  0092                     _PR2	set	146
   239  0087                     _TRISCbits	set	135
   240  008F                     _OSCCONbits	set	143
   241  0085                     _TRISA	set	133
   242  0088                     _TRISD	set	136
   243  0189                     _ANSELH	set	393
   244  0188                     _ANSEL	set	392
   245                           
   246                           	psect	cinit
   247  0013                     start_initialization:	
   248                           ; #config settings
   249                           
   250  0013                     __initialization:
   251                           
   252                           ; Initialize objects allocated to BANK1
   253  0013  1683               	bsf	3,5	;RP0=1, select bank1
   254  0014  1303               	bcf	3,6	;RP1=0, select bank1
   255  0015  120A  118A  27F4  120A  118A  	fcall	__pidataBANK1	;fetch initializer
   256  001A  00B3               	movwf	__pdataBANK1& (0+127)
   257                           
   258                           ; Clear objects allocated to BANK1
   259  001B  01B0               	clrf	__pbssBANK1& (0+127)
   260  001C  01B1               	clrf	(__pbssBANK1+1)& (0+127)
   261  001D  01B2               	clrf	(__pbssBANK1+2)& (0+127)
   262                           
   263                           ; Clear objects allocated to BANK0
   264  001E  1283               	bcf	3,5	;RP0=0, select bank0
   265  001F  1303               	bcf	3,6	;RP1=0, select bank0
   266  0020  01EF               	clrf	__pbssBANK0& (0+127)
   267  0021                     end_of_initialization:	
   268                           ;End of C runtime variable initialization code
   269                           
   270  0021                     __end_of__initialization:
   271  0021  0183               	clrf	3
   272  0022  120A  118A  2FEB   	ljmp	_main	;jump to C main() function
   273                           
   274                           	psect	bssBANK0
   275  006F                     __pbssBANK0:
   276  006F                     _cont_master:
   277  006F                     	ds	1
   278                           
   279                           	psect	bssBANK1
   280  00B0                     __pbssBANK1:
   281  00B0                     _CCPR:
   282  00B0                     	ds	2
   283  00B2                     _val_temp:
   284  00B2                     	ds	1
   285                           
   286                           	psect	dataBANK1
   287  00B3                     __pdataBANK1:
   288  00B3                     _cont_slave:
   289  00B3                     	ds	1
   290                           
   291                           	psect	cstackBANK1
   292  00A0                     __pcstackBANK1:
   293  00A0                     ??___fltol:
   294                           
   295                           ; 1 bytes @ 0x0
   296  00A0                     	ds	5
   297  00A5                     ?_map:
   298  00A5                     map@x0:	
   299                           ; 2 bytes @ 0x5
   300                           
   301                           
   302                           ; 1 bytes @ 0x5
   303  00A5                     	ds	1
   304  00A6                     map@x1:
   305                           
   306                           ; 1 bytes @ 0x6
   307  00A6                     	ds	1
   308  00A7                     map@y0:
   309                           
   310                           ; 2 bytes @ 0x7
   311  00A7                     	ds	2
   312  00A9                     map@y1:
   313                           
   314                           ; 2 bytes @ 0x9
   315  00A9                     	ds	2
   316  00AB                     ??_isr:
   317                           
   318                           ; 1 bytes @ 0xB
   319  00AB                     	ds	5
   320  00B0                     ??_setup:
   321  00B0                     ??_main:	
   322                           ; 1 bytes @ 0x10
   323                           
   324                           
   325                           	psect	cstackCOMMON
   326  0070                     __pcstackCOMMON:	
   327                           ; 1 bytes @ 0x10
   328                           
   329  0070                     ?_setup:
   330  0070                     ?_isr:	
   331                           ; 1 bytes @ 0x0
   332                           
   333  0070                     ?_main:	
   334                           ; 1 bytes @ 0x0
   335                           
   336  0070                     ?__Umul8_16:	
   337                           ; 1 bytes @ 0x0
   338                           
   339  0070                     ?___xxtofl:	
   340                           ; 2 bytes @ 0x0
   341                           
   342  0070                     __Umul8_16@multiplicand:	
   343                           ; 4 bytes @ 0x0
   344                           
   345  0070                     ___xxtofl@val:	
   346                           ; 1 bytes @ 0x0
   347                           
   348                           
   349                           ; 4 bytes @ 0x0
   350  0070                     	ds	2
   351  0072                     ??__Umul8_16:
   352                           
   353                           ; 1 bytes @ 0x2
   354  0072                     	ds	2
   355  0074                     ??___xxtofl:
   356  0074                     __Umul8_16@product:	
   357                           ; 1 bytes @ 0x4
   358                           
   359                           
   360                           ; 2 bytes @ 0x4
   361  0074                     	ds	2
   362  0076                     __Umul8_16@word_mpld:
   363                           
   364                           ; 2 bytes @ 0x6
   365  0076                     	ds	2
   366  0078                     __Umul8_16@multiplier:
   367  0078                     ___xxtofl@sign:	
   368                           ; 1 bytes @ 0x8
   369                           
   370                           
   371                           ; 1 bytes @ 0x8
   372  0078                     	ds	1
   373  0079                     ___xxtofl@exp:
   374                           
   375                           ; 1 bytes @ 0x9
   376  0079                     	ds	1
   377  007A                     ___xxtofl@arg:
   378                           
   379                           ; 4 bytes @ 0xA
   380  007A                     	ds	4
   381  007E                     ??_map:
   382                           
   383                           	psect	cstackBANK0
   384  0020                     __pcstackBANK0:	
   385                           ; 1 bytes @ 0xE
   386                           
   387  0020                     ?___fldiv:
   388  0020                     ___fldiv@a:	
   389                           ; 4 bytes @ 0x0
   390                           
   391                           
   392                           ; 4 bytes @ 0x0
   393  0020                     	ds	4
   394  0024                     ___fldiv@b:
   395                           
   396                           ; 4 bytes @ 0x4
   397  0024                     	ds	4
   398  0028                     ??___fldiv:
   399                           
   400                           ; 1 bytes @ 0x8
   401  0028                     	ds	5
   402  002D                     ___fldiv@rem:
   403                           
   404                           ; 4 bytes @ 0xD
   405  002D                     	ds	4
   406  0031                     ___fldiv@sign:
   407                           
   408                           ; 1 bytes @ 0x11
   409  0031                     	ds	1
   410  0032                     ___fldiv@new_exp:
   411                           
   412                           ; 2 bytes @ 0x12
   413  0032                     	ds	2
   414  0034                     ___fldiv@grs:
   415                           
   416                           ; 4 bytes @ 0x14
   417  0034                     	ds	4
   418  0038                     ___fldiv@bexp:
   419                           
   420                           ; 1 bytes @ 0x18
   421  0038                     	ds	1
   422  0039                     ___fldiv@aexp:
   423                           
   424                           ; 1 bytes @ 0x19
   425  0039                     	ds	1
   426  003A                     ?___flmul:
   427  003A                     ___flmul@b:	
   428                           ; 4 bytes @ 0x1A
   429                           
   430                           
   431                           ; 4 bytes @ 0x1A
   432  003A                     	ds	4
   433  003E                     ___flmul@a:
   434                           
   435                           ; 4 bytes @ 0x1E
   436  003E                     	ds	4
   437  0042                     ??___flmul:
   438                           
   439                           ; 1 bytes @ 0x22
   440  0042                     	ds	5
   441  0047                     ___flmul@sign:
   442                           
   443                           ; 1 bytes @ 0x27
   444  0047                     	ds	1
   445  0048                     ___flmul@grs:
   446                           
   447                           ; 4 bytes @ 0x28
   448  0048                     	ds	4
   449  004C                     ___flmul@aexp:
   450                           
   451                           ; 1 bytes @ 0x2C
   452  004C                     	ds	1
   453  004D                     ___flmul@bexp:
   454                           
   455                           ; 1 bytes @ 0x2D
   456  004D                     	ds	1
   457  004E                     ___flmul@prod:
   458                           
   459                           ; 4 bytes @ 0x2E
   460  004E                     	ds	4
   461  0052                     ___flmul@temp:
   462                           
   463                           ; 2 bytes @ 0x32
   464  0052                     	ds	2
   465  0054                     ?___fladd:
   466  0054                     ___fladd@b:	
   467                           ; 4 bytes @ 0x34
   468                           
   469                           
   470                           ; 4 bytes @ 0x34
   471  0054                     	ds	4
   472  0058                     ___fladd@a:
   473                           
   474                           ; 4 bytes @ 0x38
   475  0058                     	ds	4
   476  005C                     ??___fladd:
   477                           
   478                           ; 1 bytes @ 0x3C
   479  005C                     	ds	8
   480  0064                     ___fladd@signs:
   481                           
   482                           ; 1 bytes @ 0x44
   483  0064                     	ds	1
   484  0065                     ___fladd@aexp:
   485                           
   486                           ; 1 bytes @ 0x45
   487  0065                     	ds	1
   488  0066                     ___fladd@bexp:
   489                           
   490                           ; 1 bytes @ 0x46
   491  0066                     	ds	1
   492  0067                     ___fladd@grs:
   493                           
   494                           ; 1 bytes @ 0x47
   495  0067                     	ds	1
   496  0068                     ?___fltol:
   497  0068                     ___fltol@f1:	
   498                           ; 4 bytes @ 0x48
   499                           
   500                           
   501                           ; 4 bytes @ 0x48
   502  0068                     	ds	4
   503  006C                     ___fltol@sign1:
   504                           
   505                           ; 1 bytes @ 0x4C
   506  006C                     	ds	1
   507  006D                     ___fltol@exp1:
   508                           
   509                           ; 1 bytes @ 0x4D
   510  006D                     	ds	1
   511  006E                     map@x:
   512                           
   513                           ; 1 bytes @ 0x4E
   514  006E                     	ds	1
   515                           
   516                           	psect	maintext
   517  07EB                     __pmaintext:	
   518 ;;
   519 ;;Main: autosize = 0, tempsize = 0, incstack = 0, save=0
   520 ;;
   521 ;; *************** function _main *****************
   522 ;; Defined at:
   523 ;;		line 65 in file "mainL11_slave1.c"
   524 ;; Parameters:    Size  Location     Type
   525 ;;		None
   526 ;; Auto vars:     Size  Location     Type
   527 ;;		None
   528 ;; Return value:  Size  Location     Type
   529 ;;                  1    wreg      void 
   530 ;; Registers used:
   531 ;;		wreg, status,2, status,0, pclath, cstack
   532 ;; Tracked objects:
   533 ;;		On entry : B00/0
   534 ;;		On exit  : 0/0
   535 ;;		Unchanged: 0/0
   536 ;; Data sizes:     COMMON   BANK0   BANK1   BANK3   BANK2
   537 ;;      Params:         0       0       0       0       0
   538 ;;      Locals:         0       0       0       0       0
   539 ;;      Temps:          0       0       0       0       0
   540 ;;      Totals:         0       0       0       0       0
   541 ;;Total ram usage:        0 bytes
   542 ;; Hardware stack levels required when called: 5
   543 ;; This function calls:
   544 ;;		_setup
   545 ;; This function is called by:
   546 ;;		Startup code after reset
   547 ;; This function uses a non-reentrant model
   548 ;;
   549                           
   550  07EB                     _main:	
   551                           ;psect for function _main
   552                           
   553  07EB                     l1955:	
   554                           ;incstack = 0
   555                           ; Regs used in _main: [wreg+status,2+status,0+pclath+cstack]
   556                           
   557                           
   558                           ;mainL11_slave1.c: 66:     setup();
   559  07EB  120A  158A  255C  120A  118A  	fcall	_setup
   560  07F0                     l65:	
   561                           ;mainL11_slave1.c: 67:     while(1){
   562                           
   563  07F0                     l66:	
   564                           ;mainL11_slave1.c: 70:     }
   565                           
   566  07F0  2FF0               	goto	l65
   567  07F1  120A  118A  2810   	ljmp	start
   568  07F4                     __end_of_main:
   569                           
   570                           	psect	text1
   571  0D5C                     __ptext1:	
   572 ;; *************** function _setup *****************
   573 ;; Defined at:
   574 ;;		line 74 in file "mainL11_slave1.c"
   575 ;; Parameters:    Size  Location     Type
   576 ;;		None
   577 ;; Auto vars:     Size  Location     Type
   578 ;;		None
   579 ;; Return value:  Size  Location     Type
   580 ;;                  1    wreg      void 
   581 ;; Registers used:
   582 ;;		wreg, status,2, status,0
   583 ;; Tracked objects:
   584 ;;		On entry : 0/0
   585 ;;		On exit  : 0/0
   586 ;;		Unchanged: 0/0
   587 ;; Data sizes:     COMMON   BANK0   BANK1   BANK3   BANK2
   588 ;;      Params:         0       0       0       0       0
   589 ;;      Locals:         0       0       0       0       0
   590 ;;      Temps:          0       0       0       0       0
   591 ;;      Totals:         0       0       0       0       0
   592 ;;Total ram usage:        0 bytes
   593 ;; Hardware stack levels used: 1
   594 ;; Hardware stack levels required when called: 4
   595 ;; This function calls:
   596 ;;		Nothing
   597 ;; This function is called by:
   598 ;;		_main
   599 ;; This function uses a non-reentrant model
   600 ;;
   601                           
   602  0D5C                     _setup:	
   603                           ;psect for function _setup
   604                           
   605  0D5C                     l1887:	
   606                           ;incstack = 0
   607                           ; Regs used in _setup: [wreg+status,2+status,0]
   608                           
   609                           
   610                           ;mainL11_slave1.c: 75:     ANSEL = 0;
   611  0D5C  1683               	bsf	3,5	;RP0=1, select bank3
   612  0D5D  1703               	bsf	3,6	;RP1=1, select bank3
   613  0D5E  0188               	clrf	8	;volatile
   614                           
   615                           ;mainL11_slave1.c: 76:     ANSELH = 0;
   616  0D5F  0189               	clrf	9	;volatile
   617                           
   618                           ;mainL11_slave1.c: 78:     TRISD = 0;
   619  0D60  1683               	bsf	3,5	;RP0=1, select bank1
   620  0D61  1303               	bcf	3,6	;RP1=0, select bank1
   621  0D62  0188               	clrf	8	;volatile
   622                           
   623                           ;mainL11_slave1.c: 79:     PORTD = 0;
   624  0D63  1283               	bcf	3,5	;RP0=0, select bank0
   625  0D64  1303               	bcf	3,6	;RP1=0, select bank0
   626  0D65  0188               	clrf	8	;volatile
   627  0D66                     l1889:
   628                           
   629                           ;mainL11_slave1.c: 81:     TRISA = 0b00100001;
   630  0D66  3021               	movlw	33
   631  0D67  1683               	bsf	3,5	;RP0=1, select bank1
   632  0D68  1303               	bcf	3,6	;RP1=0, select bank1
   633  0D69  0085               	movwf	5	;volatile
   634  0D6A                     l1891:
   635                           
   636                           ;mainL11_slave1.c: 82:     PORTA = 0;
   637  0D6A  1283               	bcf	3,5	;RP0=0, select bank0
   638  0D6B  1303               	bcf	3,6	;RP1=0, select bank0
   639  0D6C  0185               	clrf	5	;volatile
   640  0D6D                     l1893:
   641                           
   642                           ;mainL11_slave1.c: 84:     OSCCONbits.IRCF = 0b100;
   643  0D6D  1683               	bsf	3,5	;RP0=1, select bank1
   644  0D6E  1303               	bcf	3,6	;RP1=0, select bank1
   645  0D6F  080F               	movf	15,w	;volatile
   646  0D70  398F               	andlw	-113
   647  0D71  3840               	iorlw	64
   648  0D72  008F               	movwf	15	;volatile
   649  0D73                     l1895:
   650                           
   651                           ;mainL11_slave1.c: 85:     OSCCONbits.SCS = 1;
   652  0D73  140F               	bsf	15,0	;volatile
   653  0D74                     l1897:
   654                           
   655                           ;mainL11_slave1.c: 88:     TRISCbits.TRISC2 = 1;
   656  0D74  1507               	bsf	7,2	;volatile
   657  0D75                     l1899:
   658                           
   659                           ;mainL11_slave1.c: 89:     PR2 = 61;
   660  0D75  303D               	movlw	61
   661  0D76  0092               	movwf	18	;volatile
   662  0D77                     l1901:
   663                           
   664                           ;mainL11_slave1.c: 92:     CCP1CON = 0;
   665  0D77  1283               	bcf	3,5	;RP0=0, select bank0
   666  0D78  1303               	bcf	3,6	;RP1=0, select bank0
   667  0D79  0197               	clrf	23	;volatile
   668  0D7A                     l1903:
   669                           
   670                           ;mainL11_slave1.c: 93:     CCP1CONbits.P1M = 0;
   671  0D7A  303F               	movlw	-193
   672  0D7B  0597               	andwf	23,f	;volatile
   673  0D7C                     l1905:
   674                           
   675                           ;mainL11_slave1.c: 94:     CCP1CONbits.CCP1M = 0b1100;
   676  0D7C  0817               	movf	23,w	;volatile
   677  0D7D  39F0               	andlw	-16
   678  0D7E  380C               	iorlw	12
   679  0D7F  0097               	movwf	23	;volatile
   680  0D80                     l1907:
   681                           
   682                           ;mainL11_slave1.c: 95:     CCPR1L = 63>>2;
   683  0D80  300F               	movlw	15
   684  0D81  0095               	movwf	21	;volatile
   685  0D82                     l1909:
   686                           
   687                           ;mainL11_slave1.c: 96:     CCP1CONbits.DC1B = 63 & 0b11;
   688  0D82  3030               	movlw	48
   689  0D83  0497               	iorwf	23,f	;volatile
   690  0D84                     l1911:
   691                           
   692                           ;mainL11_slave1.c: 99:     PIR1bits.TMR2IF = 0;
   693  0D84  108C               	bcf	12,1	;volatile
   694  0D85                     l1913:
   695                           
   696                           ;mainL11_slave1.c: 100:     T2CONbits.T2CKPS = 0b11;
   697  0D85  3003               	movlw	3
   698  0D86  0492               	iorwf	18,f	;volatile
   699  0D87                     l1915:
   700                           
   701                           ;mainL11_slave1.c: 101:     T2CONbits.TMR2ON = 1;
   702  0D87  1512               	bsf	18,2	;volatile
   703  0D88                     l71:	
   704                           ;mainL11_slave1.c: 102:     while(!PIR1bits.TMR2IF);
   705                           
   706  0D88  1C8C               	btfss	12,1	;volatile
   707  0D89  2D8B               	goto	u2811
   708  0D8A  2D8C               	goto	u2810
   709  0D8B                     u2811:
   710  0D8B  2D88               	goto	l71
   711  0D8C                     u2810:
   712  0D8C                     l73:
   713                           
   714                           ;mainL11_slave1.c: 103:     PIR1bits.TMR2IF = 0;
   715  0D8C  108C               	bcf	12,1	;volatile
   716                           
   717                           ;mainL11_slave1.c: 105:     TRISCbits.TRISC2 = 0;
   718  0D8D  1683               	bsf	3,5	;RP0=1, select bank1
   719  0D8E  1303               	bcf	3,6	;RP1=0, select bank1
   720  0D8F  1107               	bcf	7,2	;volatile
   721  0D90                     l1917:
   722                           
   723                           ;mainL11_slave1.c: 109:     TRISC = 0b00011000;
   724  0D90  3018               	movlw	24
   725  0D91  0087               	movwf	7	;volatile
   726  0D92                     l1919:
   727                           
   728                           ;mainL11_slave1.c: 110:     PORTC = 0;
   729  0D92  1283               	bcf	3,5	;RP0=0, select bank0
   730  0D93  1303               	bcf	3,6	;RP1=0, select bank0
   731  0D94  0187               	clrf	7	;volatile
   732  0D95                     l1921:
   733                           
   734                           ;mainL11_slave1.c: 113:     SSPCONbits.SSPM = 0b0100;
   735  0D95  0814               	movf	20,w	;volatile
   736  0D96  39F0               	andlw	-16
   737  0D97  3804               	iorlw	4
   738  0D98  0094               	movwf	20	;volatile
   739  0D99                     l1923:
   740                           
   741                           ;mainL11_slave1.c: 114:     SSPCONbits.CKP = 0;
   742  0D99  1214               	bcf	20,4	;volatile
   743  0D9A                     l1925:
   744                           
   745                           ;mainL11_slave1.c: 115:     SSPCONbits.SSPEN = 1;
   746  0D9A  1694               	bsf	20,5	;volatile
   747  0D9B                     l1927:
   748                           
   749                           ;mainL11_slave1.c: 117:     SSPSTATbits.CKE = 1;
   750  0D9B  1683               	bsf	3,5	;RP0=1, select bank1
   751  0D9C  1303               	bcf	3,6	;RP1=0, select bank1
   752  0D9D  1714               	bsf	20,6	;volatile
   753  0D9E                     l1929:
   754                           
   755                           ;mainL11_slave1.c: 118:     SSPSTATbits.SMP = 0;
   756  0D9E  1394               	bcf	20,7	;volatile
   757  0D9F                     l1931:
   758                           
   759                           ;mainL11_slave1.c: 120:     PIR1bits.SSPIF = 0;
   760  0D9F  1283               	bcf	3,5	;RP0=0, select bank0
   761  0DA0  1303               	bcf	3,6	;RP1=0, select bank0
   762  0DA1  118C               	bcf	12,3	;volatile
   763  0DA2                     l1933:
   764                           
   765                           ;mainL11_slave1.c: 121:     PIE1bits.SSPIE = 1;
   766  0DA2  1683               	bsf	3,5	;RP0=1, select bank1
   767  0DA3  1303               	bcf	3,6	;RP1=0, select bank1
   768  0DA4  158C               	bsf	12,3	;volatile
   769  0DA5                     l1935:
   770                           
   771                           ;mainL11_slave1.c: 122:     INTCONbits.PEIE = 1;
   772  0DA5  170B               	bsf	11,6	;volatile
   773  0DA6                     l1937:
   774                           
   775                           ;mainL11_slave1.c: 123:     INTCONbits.GIE = 1;
   776  0DA6  178B               	bsf	11,7	;volatile
   777  0DA7                     l74:
   778  0DA7  0008               	return
   779  0DA8                     __end_of_setup:
   780                           
   781                           	psect	text2
   782  0DA8                     __ptext2:	
   783 ;; *************** function _isr *****************
   784 ;; Defined at:
   785 ;;		line 52 in file "mainL11_slave1.c"
   786 ;; Parameters:    Size  Location     Type
   787 ;;		None
   788 ;; Auto vars:     Size  Location     Type
   789 ;;		None
   790 ;; Return value:  Size  Location     Type
   791 ;;                  1    wreg      void 
   792 ;; Registers used:
   793 ;;		wreg, status,2, status,0, btemp+1, pclath, cstack
   794 ;; Tracked objects:
   795 ;;		On entry : 0/0
   796 ;;		On exit  : 0/0
   797 ;;		Unchanged: 0/0
   798 ;; Data sizes:     COMMON   BANK0   BANK1   BANK3   BANK2
   799 ;;      Params:         0       0       0       0       0
   800 ;;      Locals:         0       0       0       0       0
   801 ;;      Temps:          0       0       5       0       0
   802 ;;      Totals:         0       0       5       0       0
   803 ;;Total ram usage:        5 bytes
   804 ;; Hardware stack levels used: 1
   805 ;; Hardware stack levels required when called: 3
   806 ;; This function calls:
   807 ;;		_map
   808 ;; This function is called by:
   809 ;;		Interrupt level 1
   810 ;; This function uses a non-reentrant model
   811 ;;
   812                           
   813  0DA8                     _isr:	
   814                           ;psect for function _isr
   815                           
   816  0DA8                     i1l1941:
   817                           
   818                           ;mainL11_slave1.c: 53:     if (PIR1bits.SSPIF){
   819  0DA8  1283               	bcf	3,5	;RP0=0, select bank0
   820  0DA9  1303               	bcf	3,6	;RP1=0, select bank0
   821  0DAA  1D8C               	btfss	12,3	;volatile
   822  0DAB  2DAD               	goto	u282_21
   823  0DAC  2DAE               	goto	u282_20
   824  0DAD                     u282_21:
   825  0DAD  2DED               	goto	i1l60
   826  0DAE                     u282_20:
   827  0DAE                     i1l1943:
   828                           
   829                           ;mainL11_slave1.c: 54:         val_temp = SSPBUF;
   830  0DAE  0813               	movf	19,w	;volatile
   831  0DAF  1683               	bsf	3,5	;RP0=1, select bank1
   832  0DB0  1303               	bcf	3,6	;RP1=0, select bank1
   833  0DB1  00AB               	movwf	??_isr^(0+128)
   834  0DB2  082B               	movf	??_isr^(0+128),w
   835  0DB3  00B2               	movwf	_val_temp^(0+128)
   836  0DB4                     i1l1945:
   837                           
   838                           ;mainL11_slave1.c: 55:         CCPR = map(val_temp, 0, 255, 62, 125);
   839  0DB4  01A5               	clrf	map@x0^(0+128)
   840  0DB5  30FF               	movlw	255
   841  0DB6  00AB               	movwf	??_isr^(0+128)
   842  0DB7  082B               	movf	??_isr^(0+128),w
   843  0DB8  00A6               	movwf	map@x1^(0+128)
   844  0DB9  303E               	movlw	62
   845  0DBA  00A7               	movwf	map@y0^(0+128)
   846  0DBB  3000               	movlw	0
   847  0DBC  00A8               	movwf	(map@y0^(0+128)+1)
   848  0DBD  307D               	movlw	125
   849  0DBE  00A9               	movwf	map@y1^(0+128)
   850  0DBF  3000               	movlw	0
   851  0DC0  00AA               	movwf	(map@y1^(0+128)+1)
   852  0DC1  0832               	movf	_val_temp^(0+128),w
   853  0DC2  120A  158A  2694  120A  158A  	fcall	_map
   854  0DC7  1683               	bsf	3,5	;RP0=1, select bank1
   855  0DC8  1303               	bcf	3,6	;RP1=0, select bank1
   856  0DC9  0826               	movf	(?_map+1)^(0+128),w
   857  0DCA  00B1               	movwf	(_CCPR+1)^(0+128)
   858  0DCB  0825               	movf	?_map^(0+128),w
   859  0DCC  00B0               	movwf	_CCPR^(0+128)
   860  0DCD                     i1l1947:
   861                           
   862                           ;mainL11_slave1.c: 56:         CCPR1L = (uint8_t)(CCPR>>2);
   863  0DCD  0831               	movf	(_CCPR+1)^(0+128),w
   864  0DCE  00AC               	movwf	(??_isr^(0+128)+1)
   865  0DCF  0830               	movf	_CCPR^(0+128),w
   866  0DD0  00AB               	movwf	??_isr^(0+128)
   867  0DD1  1003               	clrc
   868  0DD2  0CAC               	rrf	(??_isr^(0+128)+1),f
   869  0DD3  0CAB               	rrf	??_isr^(0+128),f
   870  0DD4  1003               	clrc
   871  0DD5  0CAC               	rrf	(??_isr^(0+128)+1),f
   872  0DD6  0CAB               	rrf	??_isr^(0+128),f
   873  0DD7  082B               	movf	??_isr^(0+128),w
   874  0DD8  1283               	bcf	3,5	;RP0=0, select bank0
   875  0DD9  1303               	bcf	3,6	;RP1=0, select bank0
   876  0DDA  0095               	movwf	21	;volatile
   877  0DDB                     i1l1949:
   878                           
   879                           ;mainL11_slave1.c: 57:         CCP1CONbits.DC1B = CCPR & 0b11;
   880  0DDB  1683               	bsf	3,5	;RP0=1, select bank1
   881  0DDC  1303               	bcf	3,6	;RP1=0, select bank1
   882  0DDD  0830               	movf	_CCPR^(0+128),w
   883  0DDE  3903               	andlw	3
   884  0DDF  00AB               	movwf	??_isr^(0+128)
   885  0DE0  0EAB               	swapf	??_isr^(0+128),f
   886  0DE1  1283               	bcf	3,5	;RP0=0, select bank0
   887  0DE2  1303               	bcf	3,6	;RP1=0, select bank0
   888  0DE3  0817               	movf	23,w	;volatile
   889  0DE4  1683               	bsf	3,5	;RP0=1, select bank1
   890  0DE5  1303               	bcf	3,6	;RP1=0, select bank1
   891  0DE6  062B               	xorwf	??_isr^(0+128),w
   892  0DE7  39CF               	andlw	-49
   893  0DE8  062B               	xorwf	??_isr^(0+128),w
   894  0DE9  1283               	bcf	3,5	;RP0=0, select bank0
   895  0DEA  1303               	bcf	3,6	;RP1=0, select bank0
   896  0DEB  0097               	movwf	23	;volatile
   897  0DEC                     i1l1951:
   898                           
   899                           ;mainL11_slave1.c: 58:         PIR1bits.SSPIF = 0;
   900  0DEC  118C               	bcf	12,3	;volatile
   901  0DED                     i1l60:
   902  0DED  1683               	bsf	3,5	;RP0=1, select bank1
   903  0DEE  1303               	bcf	3,6	;RP1=0, select bank1
   904  0DEF  082F               	movf	(??_isr+4)^(0+128),w
   905  0DF0  00FF               	movwf	btemp+1
   906  0DF1  082E               	movf	(??_isr+3)^(0+128),w
   907  0DF2  008A               	movwf	10
   908  0DF3  0E2D               	swapf	(??_isr+2)^(0+128),w
   909  0DF4  0083               	movwf	3
   910  0DF5  0EFE               	swapf	btemp,f
   911  0DF6  0E7E               	swapf	btemp,w
   912  0DF7  0009               	retfie
   913  0DF8                     __end_of_isr:
   914                           
   915                           	psect	intentry
   916  0004                     __pintentry:	
   917                           ;incstack = 0
   918                           ; Regs used in _isr: [wreg+status,2+status,0+btemp+1+pclath+cstack]
   919                           
   920  0004                     interrupt_function:
   921  007E                     saved_w	set	btemp
   922  0004  00FE               	movwf	btemp
   923  0005  0E03               	swapf	3,w
   924  0006  1683               	bsf	3,5	;RP0=1, select bank1
   925  0007  1303               	bcf	3,6	;RP1=0, select bank1
   926  0008  00AD               	movwf	(??_isr+2)^(0+128)
   927  0009  080A               	movf	10,w
   928  000A  00AE               	movwf	(??_isr+3)^(0+128)
   929  000B  087F               	movf	btemp+1,w
   930  000C  00AF               	movwf	(??_isr+4)^(0+128)
   931  000D  120A  158A  2DA8   	ljmp	_isr
   932                           
   933                           	psect	text3
   934  0E94                     __ptext3:	
   935 ;; *************** function _map *****************
   936 ;; Defined at:
   937 ;;		line 129 in file "mainL11_slave1.c"
   938 ;; Parameters:    Size  Location     Type
   939 ;;  x               1    wreg     unsigned char 
   940 ;;  x0              1    5[BANK1 ] unsigned char 
   941 ;;  x1              1    6[BANK1 ] unsigned char 
   942 ;;  y0              2    7[BANK1 ] unsigned short 
   943 ;;  y1              2    9[BANK1 ] unsigned short 
   944 ;; Auto vars:     Size  Location     Type
   945 ;;  x               1   78[BANK0 ] unsigned char 
   946 ;; Return value:  Size  Location     Type
   947 ;;                  2    5[BANK1 ] unsigned short 
   948 ;; Registers used:
   949 ;;		wreg, status,2, status,0, btemp+1, pclath, cstack
   950 ;; Tracked objects:
   951 ;;		On entry : 0/0
   952 ;;		On exit  : 0/0
   953 ;;		Unchanged: 0/0
   954 ;; Data sizes:     COMMON   BANK0   BANK1   BANK3   BANK2
   955 ;;      Params:         0       0       6       0       0
   956 ;;      Locals:         0       1       0       0       0
   957 ;;      Temps:          0       0       0       0       0
   958 ;;      Totals:         0       1       6       0       0
   959 ;;Total ram usage:        7 bytes
   960 ;; Hardware stack levels used: 1
   961 ;; Hardware stack levels required when called: 2
   962 ;; This function calls:
   963 ;;		___fladd
   964 ;;		___fldiv
   965 ;;		___flmul
   966 ;;		___fltol
   967 ;;		___xxtofl
   968 ;; This function is called by:
   969 ;;		_isr
   970 ;; This function uses a non-reentrant model
   971 ;;
   972                           
   973  0E94                     _map:	
   974                           ;psect for function _map
   975                           
   976                           
   977                           ;incstack = 0
   978                           ; Regs used in _map: [wreg+status,2+status,0+btemp+1+pclath+cstack]
   979                           ;map@x stored from wreg
   980  0E94  1283               	bcf	3,5	;RP0=0, select bank0
   981  0E95  1303               	bcf	3,6	;RP1=0, select bank0
   982  0E96  00EE               	movwf	map@x
   983  0E97                     i1l1883:
   984                           
   985                           ;mainL11_slave1.c: 129: unsigned short map(uint8_t x, uint8_t x0, uint8_t x1,;mainL11_sl
      +                          ave1.c: 130:             unsigned short y0, unsigned short y1){;mainL11_slave1.c: 131:  
      +                             return (unsigned short)(y0+((float)(y1-y0)/(x1-x0))*(x-x0));
   986  0E97  1683               	bsf	3,5	;RP0=1, select bank1
   987  0E98  1303               	bcf	3,6	;RP1=0, select bank1
   988  0E99  0827               	movf	map@y0^(0+128),w
   989  0E9A  00F0               	movwf	___xxtofl@val
   990  0E9B  0828               	movf	(map@y0+1)^(0+128),w
   991  0E9C  00F1               	movwf	___xxtofl@val+1
   992  0E9D  01F2               	clrf	___xxtofl@val+2
   993  0E9E  01F3               	clrf	___xxtofl@val+3
   994  0E9F  3000               	movlw	0
   995  0EA0  120A  158A  2746  120A  158A  	fcall	___xxtofl
   996  0EA5  0873               	movf	?___xxtofl+3,w
   997  0EA6  1283               	bcf	3,5	;RP0=0, select bank0
   998  0EA7  1303               	bcf	3,6	;RP1=0, select bank0
   999  0EA8  00DB               	movwf	___fladd@a+3
  1000  0EA9  0872               	movf	?___xxtofl+2,w
  1001  0EAA  00DA               	movwf	___fladd@a+2
  1002  0EAB  0871               	movf	?___xxtofl+1,w
  1003  0EAC  00D9               	movwf	___fladd@a+1
  1004  0EAD  0870               	movf	?___xxtofl,w
  1005  0EAE  00D8               	movwf	___fladd@a
  1006  0EAF  1683               	bsf	3,5	;RP0=1, select bank1
  1007  0EB0  1303               	bcf	3,6	;RP1=0, select bank1
  1008  0EB1  0827               	movf	map@y0^(0+128),w
  1009  0EB2  0229               	subwf	map@y1^(0+128),w
  1010  0EB3  00F0               	movwf	___xxtofl@val
  1011  0EB4  0828               	movf	(map@y0+1)^(0+128),w
  1012  0EB5  1C03               	skipc
  1013  0EB6  0A28               	incf	(map@y0+1)^(0+128),w
  1014  0EB7  022A               	subwf	(map@y1+1)^(0+128),w
  1015  0EB8  00F1               	movwf	___xxtofl@val+1
  1016  0EB9  01F2               	clrf	___xxtofl@val+2
  1017  0EBA  01F3               	clrf	___xxtofl@val+3
  1018  0EBB  3000               	movlw	0
  1019  0EBC  120A  158A  2746  120A  158A  	fcall	___xxtofl
  1020  0EC1  0873               	movf	?___xxtofl+3,w
  1021  0EC2  1283               	bcf	3,5	;RP0=0, select bank0
  1022  0EC3  1303               	bcf	3,6	;RP1=0, select bank0
  1023  0EC4  00A7               	movwf	___fldiv@b+3
  1024  0EC5  0872               	movf	?___xxtofl+2,w
  1025  0EC6  00A6               	movwf	___fldiv@b+2
  1026  0EC7  0871               	movf	?___xxtofl+1,w
  1027  0EC8  00A5               	movwf	___fldiv@b+1
  1028  0EC9  0870               	movf	?___xxtofl,w
  1029  0ECA  00A4               	movwf	___fldiv@b
  1030  0ECB  1683               	bsf	3,5	;RP0=1, select bank1
  1031  0ECC  1303               	bcf	3,6	;RP1=0, select bank1
  1032  0ECD  0825               	movf	map@x0^(0+128),w
  1033  0ECE  0226               	subwf	map@x1^(0+128),w
  1034  0ECF  00F0               	movwf	___xxtofl@val
  1035  0ED0  01F1               	clrf	___xxtofl@val+1
  1036  0ED1  1C03               	skipc
  1037  0ED2  03F1               	decf	___xxtofl@val+1,f
  1038  0ED3  01F2               	clrf	___xxtofl@val+2
  1039  0ED4  1BF1               	btfsc	___xxtofl@val+1,7
  1040  0ED5  03F2               	decf	___xxtofl@val+2,f
  1041  0ED6  0872               	movf	___xxtofl@val+2,w
  1042  0ED7  00F3               	movwf	___xxtofl@val+3
  1043  0ED8  3001               	movlw	1
  1044  0ED9  120A  158A  2746  120A  158A  	fcall	___xxtofl
  1045  0EDE  0873               	movf	?___xxtofl+3,w
  1046  0EDF  1283               	bcf	3,5	;RP0=0, select bank0
  1047  0EE0  1303               	bcf	3,6	;RP1=0, select bank0
  1048  0EE1  00A3               	movwf	___fldiv@a+3
  1049  0EE2  0872               	movf	?___xxtofl+2,w
  1050  0EE3  00A2               	movwf	___fldiv@a+2
  1051  0EE4  0871               	movf	?___xxtofl+1,w
  1052  0EE5  00A1               	movwf	___fldiv@a+1
  1053  0EE6  0870               	movf	?___xxtofl,w
  1054  0EE7  00A0               	movwf	___fldiv@a
  1055  0EE8  120A  118A  260E  120A  158A  	fcall	___fldiv
  1056  0EED  1283               	bcf	3,5	;RP0=0, select bank0
  1057  0EEE  1303               	bcf	3,6	;RP1=0, select bank0
  1058  0EEF  0823               	movf	?___fldiv+3,w
  1059  0EF0  00C1               	movwf	___flmul@a+3
  1060  0EF1  0822               	movf	?___fldiv+2,w
  1061  0EF2  00C0               	movwf	___flmul@a+2
  1062  0EF3  0821               	movf	?___fldiv+1,w
  1063  0EF4  00BF               	movwf	___flmul@a+1
  1064  0EF5  0820               	movf	?___fldiv,w
  1065  0EF6  00BE               	movwf	___flmul@a
  1066  0EF7  1683               	bsf	3,5	;RP0=1, select bank1
  1067  0EF8  1303               	bcf	3,6	;RP1=0, select bank1
  1068  0EF9  0825               	movf	map@x0^(0+128),w
  1069  0EFA  1283               	bcf	3,5	;RP0=0, select bank0
  1070  0EFB  1303               	bcf	3,6	;RP1=0, select bank0
  1071  0EFC  026E               	subwf	map@x,w
  1072  0EFD  00F0               	movwf	___xxtofl@val
  1073  0EFE  01F1               	clrf	___xxtofl@val+1
  1074  0EFF  1C03               	skipc
  1075  0F00  03F1               	decf	___xxtofl@val+1,f
  1076  0F01  01F2               	clrf	___xxtofl@val+2
  1077  0F02  1BF1               	btfsc	___xxtofl@val+1,7
  1078  0F03  03F2               	decf	___xxtofl@val+2,f
  1079  0F04  0872               	movf	___xxtofl@val+2,w
  1080  0F05  00F3               	movwf	___xxtofl@val+3
  1081  0F06  3001               	movlw	1
  1082  0F07  120A  158A  2746  120A  158A  	fcall	___xxtofl
  1083  0F0C  0873               	movf	?___xxtofl+3,w
  1084  0F0D  1283               	bcf	3,5	;RP0=0, select bank0
  1085  0F0E  1303               	bcf	3,6	;RP1=0, select bank0
  1086  0F0F  00BD               	movwf	___flmul@b+3
  1087  0F10  0872               	movf	?___xxtofl+2,w
  1088  0F11  00BC               	movwf	___flmul@b+2
  1089  0F12  0871               	movf	?___xxtofl+1,w
  1090  0F13  00BB               	movwf	___flmul@b+1
  1091  0F14  0870               	movf	?___xxtofl,w
  1092  0F15  00BA               	movwf	___flmul@b
  1093  0F16  120A  118A  2025  120A  158A  	fcall	___flmul
  1094  0F1B  1283               	bcf	3,5	;RP0=0, select bank0
  1095  0F1C  1303               	bcf	3,6	;RP1=0, select bank0
  1096  0F1D  083D               	movf	?___flmul+3,w
  1097  0F1E  00D7               	movwf	___fladd@b+3
  1098  0F1F  083C               	movf	?___flmul+2,w
  1099  0F20  00D6               	movwf	___fladd@b+2
  1100  0F21  083B               	movf	?___flmul+1,w
  1101  0F22  00D5               	movwf	___fladd@b+1
  1102  0F23  083A               	movf	?___flmul,w
  1103  0F24  00D4               	movwf	___fladd@b
  1104  0F25  120A  118A  2386  120A  158A  	fcall	___fladd
  1105  0F2A  1283               	bcf	3,5	;RP0=0, select bank0
  1106  0F2B  1303               	bcf	3,6	;RP1=0, select bank0
  1107  0F2C  0857               	movf	?___fladd+3,w
  1108  0F2D  00EB               	movwf	___fltol@f1+3
  1109  0F2E  0856               	movf	?___fladd+2,w
  1110  0F2F  00EA               	movwf	___fltol@f1+2
  1111  0F30  0855               	movf	?___fladd+1,w
  1112  0F31  00E9               	movwf	___fltol@f1+1
  1113  0F32  0854               	movf	?___fladd,w
  1114  0F33  00E8               	movwf	___fltol@f1
  1115  0F34  120A  158A  25F8  120A  158A  	fcall	___fltol
  1116  0F39  1283               	bcf	3,5	;RP0=0, select bank0
  1117  0F3A  1303               	bcf	3,6	;RP1=0, select bank0
  1118  0F3B  0869               	movf	?___fltol+1,w
  1119  0F3C  1683               	bsf	3,5	;RP0=1, select bank1
  1120  0F3D  1303               	bcf	3,6	;RP1=0, select bank1
  1121  0F3E  00A6               	movwf	(?_map+1)^(0+128)
  1122  0F3F  1283               	bcf	3,5	;RP0=0, select bank0
  1123  0F40  1303               	bcf	3,6	;RP1=0, select bank0
  1124  0F41  0868               	movf	?___fltol,w
  1125  0F42  1683               	bsf	3,5	;RP0=1, select bank1
  1126  0F43  1303               	bcf	3,6	;RP1=0, select bank1
  1127  0F44  00A5               	movwf	?_map^(0+128)
  1128  0F45                     i1l77:
  1129  0F45  0008               	return
  1130  0F46                     __end_of_map:
  1131                           
  1132                           	psect	text4
  1133  0F46                     __ptext4:	
  1134 ;; *************** function ___xxtofl *****************
  1135 ;; Defined at:
  1136 ;;		line 10 in file "C:\Program Files\Microchip\xc8\v2.35\pic\sources\c90\common\xxtofl.c"
  1137 ;; Parameters:    Size  Location     Type
  1138 ;;  sign            1    wreg     unsigned char 
  1139 ;;  val             4    0[COMMON] long 
  1140 ;; Auto vars:     Size  Location     Type
  1141 ;;  sign            1    8[COMMON] unsigned char 
  1142 ;;  arg             4   10[COMMON] unsigned long 
  1143 ;;  exp             1    9[COMMON] unsigned char 
  1144 ;; Return value:  Size  Location     Type
  1145 ;;                  4    0[COMMON] unsigned char 
  1146 ;; Registers used:
  1147 ;;		wreg, status,2, status,0
  1148 ;; Tracked objects:
  1149 ;;		On entry : 0/0
  1150 ;;		On exit  : 0/0
  1151 ;;		Unchanged: 0/0
  1152 ;; Data sizes:     COMMON   BANK0   BANK1   BANK3   BANK2
  1153 ;;      Params:         4       0       0       0       0
  1154 ;;      Locals:         6       0       0       0       0
  1155 ;;      Temps:          4       0       0       0       0
  1156 ;;      Totals:        14       0       0       0       0
  1157 ;;Total ram usage:       14 bytes
  1158 ;; Hardware stack levels used: 1
  1159 ;; This function calls:
  1160 ;;		Nothing
  1161 ;; This function is called by:
  1162 ;;		_map
  1163 ;; This function uses a non-reentrant model
  1164 ;;
  1165                           
  1166  0F46                     ___xxtofl:	
  1167                           ;psect for function ___xxtofl
  1168                           
  1169                           
  1170                           ;incstack = 0
  1171                           ; Regs used in ___xxtofl: [wreg+status,2+status,0]
  1172                           ;___xxtofl@sign stored from wreg
  1173  0F46  00F8               	movwf	___xxtofl@sign
  1174  0F47                     i1l1839:
  1175  0F47  0878               	movf	___xxtofl@sign,w
  1176  0F48  1903               	btfsc	3,2
  1177  0F49  2F4B               	goto	u267_21
  1178  0F4A  2F4C               	goto	u267_20
  1179  0F4B                     u267_21:
  1180  0F4B  2F60               	goto	i1l1845
  1181  0F4C                     u267_20:
  1182  0F4C                     i1l1841:
  1183  0F4C  1FF3               	btfss	___xxtofl@val+3,7
  1184  0F4D  2F4F               	goto	u268_21
  1185  0F4E  2F50               	goto	u268_20
  1186  0F4F                     u268_21:
  1187  0F4F  2F60               	goto	i1l1845
  1188  0F50                     u268_20:
  1189  0F50                     i1l1843:
  1190  0F50  0970               	comf	___xxtofl@val,w
  1191  0F51  00FA               	movwf	___xxtofl@arg
  1192  0F52  0971               	comf	___xxtofl@val+1,w
  1193  0F53  00FB               	movwf	___xxtofl@arg+1
  1194  0F54  0972               	comf	___xxtofl@val+2,w
  1195  0F55  00FC               	movwf	___xxtofl@arg+2
  1196  0F56  0973               	comf	___xxtofl@val+3,w
  1197  0F57  00FD               	movwf	___xxtofl@arg+3
  1198  0F58  0AFA               	incf	___xxtofl@arg,f
  1199  0F59  1903               	skipnz
  1200  0F5A  0AFB               	incf	___xxtofl@arg+1,f
  1201  0F5B  1903               	skipnz
  1202  0F5C  0AFC               	incf	___xxtofl@arg+2,f
  1203  0F5D  1903               	skipnz
  1204  0F5E  0AFD               	incf	___xxtofl@arg+3,f
  1205  0F5F  2F68               	goto	i1l596
  1206  0F60                     i1l1845:
  1207  0F60  0873               	movf	___xxtofl@val+3,w
  1208  0F61  00FD               	movwf	___xxtofl@arg+3
  1209  0F62  0872               	movf	___xxtofl@val+2,w
  1210  0F63  00FC               	movwf	___xxtofl@arg+2
  1211  0F64  0871               	movf	___xxtofl@val+1,w
  1212  0F65  00FB               	movwf	___xxtofl@arg+1
  1213  0F66  0870               	movf	___xxtofl@val,w
  1214  0F67  00FA               	movwf	___xxtofl@arg
  1215  0F68                     i1l596:
  1216  0F68  0873               	movf	___xxtofl@val+3,w
  1217  0F69  0472               	iorwf	___xxtofl@val+2,w
  1218  0F6A  0471               	iorwf	___xxtofl@val+1,w
  1219  0F6B  0470               	iorwf	___xxtofl@val,w
  1220  0F6C  1D03               	skipz
  1221  0F6D  2F6F               	goto	u269_21
  1222  0F6E  2F70               	goto	u269_20
  1223  0F6F                     u269_21:
  1224  0F6F  2F79               	goto	i1l1851
  1225  0F70                     u269_20:
  1226  0F70                     i1l1847:
  1227  0F70  3000               	movlw	0
  1228  0F71  00F3               	movwf	?___xxtofl+3
  1229  0F72  3000               	movlw	0
  1230  0F73  00F2               	movwf	?___xxtofl+2
  1231  0F74  3000               	movlw	0
  1232  0F75  00F1               	movwf	?___xxtofl+1
  1233  0F76  3000               	movlw	0
  1234  0F77  00F0               	movwf	?___xxtofl
  1235  0F78  2FFF               	goto	i1l598
  1236  0F79                     i1l1851:
  1237  0F79  3096               	movlw	150
  1238  0F7A  00F4               	movwf	??___xxtofl
  1239  0F7B  0874               	movf	??___xxtofl,w
  1240  0F7C  00F9               	movwf	___xxtofl@exp
  1241  0F7D  2F8B               	goto	i1l1855
  1242  0F7E                     i1l1853:
  1243  0F7E  3001               	movlw	1
  1244  0F7F  00F4               	movwf	??___xxtofl
  1245  0F80  0874               	movf	??___xxtofl,w
  1246  0F81  07F9               	addwf	___xxtofl@exp,f
  1247  0F82  3001               	movlw	1
  1248  0F83                     u270_25:
  1249  0F83  1003               	clrc
  1250  0F84  0CFD               	rrf	___xxtofl@arg+3,f
  1251  0F85  0CFC               	rrf	___xxtofl@arg+2,f
  1252  0F86  0CFB               	rrf	___xxtofl@arg+1,f
  1253  0F87  0CFA               	rrf	___xxtofl@arg,f
  1254  0F88  3EFF               	addlw	-1
  1255  0F89  1D03               	skipz
  1256  0F8A  2F83               	goto	u270_25
  1257  0F8B                     i1l1855:
  1258  0F8B  30FE               	movlw	254
  1259  0F8C  057D               	andwf	___xxtofl@arg+3,w
  1260  0F8D  1D03               	btfss	3,2
  1261  0F8E  2F90               	goto	u271_21
  1262  0F8F  2F91               	goto	u271_20
  1263  0F90                     u271_21:
  1264  0F90  2F7E               	goto	i1l1853
  1265  0F91                     u271_20:
  1266  0F91  2FAD               	goto	i1l602
  1267  0F92                     i1l1857:
  1268  0F92  3001               	movlw	1
  1269  0F93  00F4               	movwf	??___xxtofl
  1270  0F94  0874               	movf	??___xxtofl,w
  1271  0F95  07F9               	addwf	___xxtofl@exp,f
  1272  0F96                     i1l1859:
  1273  0F96  3001               	movlw	1
  1274  0F97  07FA               	addwf	___xxtofl@arg,f
  1275  0F98  3000               	movlw	0
  1276  0F99  1803               	skipnc
  1277  0F9A  3001               	movlw	1
  1278  0F9B  07FB               	addwf	___xxtofl@arg+1,f
  1279  0F9C  3000               	movlw	0
  1280  0F9D  1803               	skipnc
  1281  0F9E  3001               	movlw	1
  1282  0F9F  07FC               	addwf	___xxtofl@arg+2,f
  1283  0FA0  3000               	movlw	0
  1284  0FA1  1803               	skipnc
  1285  0FA2  3001               	movlw	1
  1286  0FA3  07FD               	addwf	___xxtofl@arg+3,f
  1287  0FA4                     i1l1861:
  1288  0FA4  3001               	movlw	1
  1289  0FA5                     u272_25:
  1290  0FA5  1003               	clrc
  1291  0FA6  0CFD               	rrf	___xxtofl@arg+3,f
  1292  0FA7  0CFC               	rrf	___xxtofl@arg+2,f
  1293  0FA8  0CFB               	rrf	___xxtofl@arg+1,f
  1294  0FA9  0CFA               	rrf	___xxtofl@arg,f
  1295  0FAA  3EFF               	addlw	-1
  1296  0FAB  1D03               	skipz
  1297  0FAC  2FA5               	goto	u272_25
  1298  0FAD                     i1l602:
  1299  0FAD  30FF               	movlw	255
  1300  0FAE  057D               	andwf	___xxtofl@arg+3,w
  1301  0FAF  1D03               	btfss	3,2
  1302  0FB0  2FB2               	goto	u273_21
  1303  0FB1  2FB3               	goto	u273_20
  1304  0FB2                     u273_21:
  1305  0FB2  2F92               	goto	i1l1857
  1306  0FB3                     u273_20:
  1307  0FB3  2FBF               	goto	i1l1865
  1308  0FB4                     i1l1863:
  1309  0FB4  3001               	movlw	1
  1310  0FB5  02F9               	subwf	___xxtofl@exp,f
  1311  0FB6  3001               	movlw	1
  1312  0FB7  00F4               	movwf	??___xxtofl
  1313  0FB8                     u274_25:
  1314  0FB8  1003               	clrc
  1315  0FB9  0DFA               	rlf	___xxtofl@arg,f
  1316  0FBA  0DFB               	rlf	___xxtofl@arg+1,f
  1317  0FBB  0DFC               	rlf	___xxtofl@arg+2,f
  1318  0FBC  0DFD               	rlf	___xxtofl@arg+3,f
  1319  0FBD  0BF4               	decfsz	??___xxtofl,f
  1320  0FBE  2FB8               	goto	u274_25
  1321  0FBF                     i1l1865:
  1322  0FBF  1BFC               	btfsc	___xxtofl@arg+2,7
  1323  0FC0  2FC2               	goto	u275_21
  1324  0FC1  2FC3               	goto	u275_20
  1325  0FC2                     u275_21:
  1326  0FC2  2FC9               	goto	i1l609
  1327  0FC3                     u275_20:
  1328  0FC3                     i1l1867:
  1329  0FC3  3002               	movlw	2
  1330  0FC4  0279               	subwf	___xxtofl@exp,w
  1331  0FC5  1803               	skipnc
  1332  0FC6  2FC8               	goto	u276_21
  1333  0FC7  2FC9               	goto	u276_20
  1334  0FC8                     u276_21:
  1335  0FC8  2FB4               	goto	i1l1863
  1336  0FC9                     u276_20:
  1337  0FC9                     i1l609:
  1338  0FC9  1879               	btfsc	___xxtofl@exp,0
  1339  0FCA  2FCC               	goto	u277_21
  1340  0FCB  2FCD               	goto	u277_20
  1341  0FCC                     u277_21:
  1342  0FCC  2FD5               	goto	i1l610
  1343  0FCD                     u277_20:
  1344  0FCD                     i1l1869:
  1345  0FCD  30FF               	movlw	255
  1346  0FCE  05FA               	andwf	___xxtofl@arg,f
  1347  0FCF  30FF               	movlw	255
  1348  0FD0  05FB               	andwf	___xxtofl@arg+1,f
  1349  0FD1  307F               	movlw	127
  1350  0FD2  05FC               	andwf	___xxtofl@arg+2,f
  1351  0FD3  30FF               	movlw	255
  1352  0FD4  05FD               	andwf	___xxtofl@arg+3,f
  1353  0FD5                     i1l610:
  1354  0FD5  1003               	clrc
  1355  0FD6  0CF9               	rrf	___xxtofl@exp,f
  1356  0FD7                     i1l1871:
  1357  0FD7  0879               	movf	___xxtofl@exp,w
  1358  0FD8  00F4               	movwf	??___xxtofl
  1359  0FD9  01F5               	clrf	??___xxtofl+1
  1360  0FDA  01F6               	clrf	??___xxtofl+2
  1361  0FDB  01F7               	clrf	??___xxtofl+3
  1362  0FDC  3018               	movlw	24
  1363  0FDD                     u278_25:
  1364  0FDD  1003               	clrc
  1365  0FDE  0DF4               	rlf	??___xxtofl,f
  1366  0FDF  0DF5               	rlf	??___xxtofl+1,f
  1367  0FE0  0DF6               	rlf	??___xxtofl+2,f
  1368  0FE1  0DF7               	rlf	??___xxtofl+3,f
  1369  0FE2                     u278_20:
  1370  0FE2  3EFF               	addlw	-1
  1371  0FE3  1D03               	skipz
  1372  0FE4  2FDD               	goto	u278_25
  1373  0FE5  0874               	movf	??___xxtofl,w
  1374  0FE6  04FA               	iorwf	___xxtofl@arg,f
  1375  0FE7  0875               	movf	??___xxtofl+1,w
  1376  0FE8  04FB               	iorwf	___xxtofl@arg+1,f
  1377  0FE9  0876               	movf	??___xxtofl+2,w
  1378  0FEA  04FC               	iorwf	___xxtofl@arg+2,f
  1379  0FEB  0877               	movf	??___xxtofl+3,w
  1380  0FEC  04FD               	iorwf	___xxtofl@arg+3,f
  1381  0FED                     i1l1873:
  1382  0FED  0878               	movf	___xxtofl@sign,w
  1383  0FEE  1903               	btfsc	3,2
  1384  0FEF  2FF1               	goto	u279_21
  1385  0FF0  2FF2               	goto	u279_20
  1386  0FF1                     u279_21:
  1387  0FF1  2FF7               	goto	i1l1879
  1388  0FF2                     u279_20:
  1389  0FF2                     i1l1875:
  1390  0FF2  1FF3               	btfss	___xxtofl@val+3,7
  1391  0FF3  2FF5               	goto	u280_21
  1392  0FF4  2FF6               	goto	u280_20
  1393  0FF5                     u280_21:
  1394  0FF5  2FF7               	goto	i1l1879
  1395  0FF6                     u280_20:
  1396  0FF6                     i1l1877:
  1397  0FF6  17FD               	bsf	___xxtofl@arg+3,7
  1398  0FF7                     i1l1879:
  1399  0FF7  087D               	movf	___xxtofl@arg+3,w
  1400  0FF8  00F3               	movwf	?___xxtofl+3
  1401  0FF9  087C               	movf	___xxtofl@arg+2,w
  1402  0FFA  00F2               	movwf	?___xxtofl+2
  1403  0FFB  087B               	movf	___xxtofl@arg+1,w
  1404  0FFC  00F1               	movwf	?___xxtofl+1
  1405  0FFD  087A               	movf	___xxtofl@arg,w
  1406  0FFE  00F0               	movwf	?___xxtofl
  1407  0FFF                     i1l598:
  1408  0FFF  0008               	return
  1409  1000                     __end_of___xxtofl:
  1410                           
  1411                           	psect	text5
  1412  0DF8                     __ptext5:	
  1413 ;; *************** function ___fltol *****************
  1414 ;; Defined at:
  1415 ;;		line 43 in file "C:\Program Files\Microchip\xc8\v2.35\pic\sources\c90\common\fltol.c"
  1416 ;; Parameters:    Size  Location     Type
  1417 ;;  f1              4   72[BANK0 ] unsigned char 
  1418 ;; Auto vars:     Size  Location     Type
  1419 ;;  exp1            1   77[BANK0 ] unsigned char 
  1420 ;;  sign1           1   76[BANK0 ] unsigned char 
  1421 ;; Return value:  Size  Location     Type
  1422 ;;                  4   72[BANK0 ] long 
  1423 ;; Registers used:
  1424 ;;		wreg, status,2, status,0
  1425 ;; Tracked objects:
  1426 ;;		On entry : 0/0
  1427 ;;		On exit  : 0/0
  1428 ;;		Unchanged: 0/0
  1429 ;; Data sizes:     COMMON   BANK0   BANK1   BANK3   BANK2
  1430 ;;      Params:         0       4       0       0       0
  1431 ;;      Locals:         0       2       0       0       0
  1432 ;;      Temps:          0       0       5       0       0
  1433 ;;      Totals:         0       6       5       0       0
  1434 ;;Total ram usage:       11 bytes
  1435 ;; Hardware stack levels used: 1
  1436 ;; This function calls:
  1437 ;;		Nothing
  1438 ;; This function is called by:
  1439 ;;		_map
  1440 ;; This function uses a non-reentrant model
  1441 ;;
  1442                           
  1443  0DF8                     ___fltol:	
  1444                           ;psect for function ___fltol
  1445                           
  1446  0DF8                     i1l1327:	
  1447                           ;incstack = 0
  1448                           ; Regs used in ___fltol: [wreg+status,2+status,0]
  1449                           
  1450  0DF8  1003               	clrc
  1451  0DF9  1283               	bcf	3,5	;RP0=0, select bank0
  1452  0DFA  1303               	bcf	3,6	;RP1=0, select bank0
  1453  0DFB  0D6A               	rlf	___fltol@f1+2,w
  1454  0DFC  0D6B               	rlf	___fltol@f1+3,w
  1455  0DFD  1683               	bsf	3,5	;RP0=1, select bank1
  1456  0DFE  1303               	bcf	3,6	;RP1=0, select bank1
  1457  0DFF  00A0               	movwf	??___fltol^(0+128)
  1458  0E00  0820               	movf	??___fltol^(0+128),w
  1459  0E01  1283               	bcf	3,5	;RP0=0, select bank0
  1460  0E02  1303               	bcf	3,6	;RP1=0, select bank0
  1461  0E03  00ED               	movwf	___fltol@exp1
  1462  0E04  086D               	movf	___fltol@exp1,w
  1463  0E05  1D03               	btfss	3,2
  1464  0E06  2E08               	goto	u145_21
  1465  0E07  2E09               	goto	u145_20
  1466  0E08                     u145_21:
  1467  0E08  2E12               	goto	i1l1333
  1468  0E09                     u145_20:
  1469  0E09                     i1l1329:
  1470  0E09  3000               	movlw	0
  1471  0E0A  00EB               	movwf	?___fltol+3
  1472  0E0B  3000               	movlw	0
  1473  0E0C  00EA               	movwf	?___fltol+2
  1474  0E0D  3000               	movlw	0
  1475  0E0E  00E9               	movwf	?___fltol+1
  1476  0E0F  3000               	movlw	0
  1477  0E10  00E8               	movwf	?___fltol
  1478  0E11  2E93               	goto	i1l349
  1479  0E12                     i1l1333:
  1480  0E12  0868               	movf	___fltol@f1,w
  1481  0E13  1683               	bsf	3,5	;RP0=1, select bank1
  1482  0E14  1303               	bcf	3,6	;RP1=0, select bank1
  1483  0E15  00A0               	movwf	??___fltol^(0+128)
  1484  0E16  1283               	bcf	3,5	;RP0=0, select bank0
  1485  0E17  1303               	bcf	3,6	;RP1=0, select bank0
  1486  0E18  0869               	movf	___fltol@f1+1,w
  1487  0E19  1683               	bsf	3,5	;RP0=1, select bank1
  1488  0E1A  1303               	bcf	3,6	;RP1=0, select bank1
  1489  0E1B  00A1               	movwf	(??___fltol^(0+128)+1)
  1490  0E1C  1283               	bcf	3,5	;RP0=0, select bank0
  1491  0E1D  1303               	bcf	3,6	;RP1=0, select bank0
  1492  0E1E  086A               	movf	___fltol@f1+2,w
  1493  0E1F  1683               	bsf	3,5	;RP0=1, select bank1
  1494  0E20  1303               	bcf	3,6	;RP1=0, select bank1
  1495  0E21  00A2               	movwf	(??___fltol^(0+128)+2)
  1496  0E22  1283               	bcf	3,5	;RP0=0, select bank0
  1497  0E23  1303               	bcf	3,6	;RP1=0, select bank0
  1498  0E24  086B               	movf	___fltol@f1+3,w
  1499  0E25  1683               	bsf	3,5	;RP0=1, select bank1
  1500  0E26  1303               	bcf	3,6	;RP1=0, select bank1
  1501  0E27  00A3               	movwf	(??___fltol^(0+128)+3)
  1502  0E28  301F               	movlw	31
  1503  0E29                     u146_25:
  1504  0E29  1003               	clrc
  1505  0E2A  0CA3               	rrf	(??___fltol^(0+128)+3),f
  1506  0E2B  0CA2               	rrf	(??___fltol^(0+128)+2),f
  1507  0E2C  0CA1               	rrf	(??___fltol^(0+128)+1),f
  1508  0E2D  0CA0               	rrf	??___fltol^(0+128),f
  1509  0E2E                     u146_20:
  1510  0E2E  3EFF               	addlw	-1
  1511  0E2F  1D03               	skipz
  1512  0E30  2E29               	goto	u146_25
  1513  0E31  0820               	movf	??___fltol^(0+128),w
  1514  0E32  00A4               	movwf	(??___fltol+4)^(0+128)
  1515  0E33  0824               	movf	(??___fltol+4)^(0+128),w
  1516  0E34  1283               	bcf	3,5	;RP0=0, select bank0
  1517  0E35  1303               	bcf	3,6	;RP1=0, select bank0
  1518  0E36  00EC               	movwf	___fltol@sign1
  1519  0E37                     i1l1335:
  1520  0E37  17EA               	bsf	___fltol@f1+2,7
  1521  0E38                     i1l1337:
  1522  0E38  30FF               	movlw	255
  1523  0E39  05E8               	andwf	___fltol@f1,f
  1524  0E3A  30FF               	movlw	255
  1525  0E3B  05E9               	andwf	___fltol@f1+1,f
  1526  0E3C  30FF               	movlw	255
  1527  0E3D  05EA               	andwf	___fltol@f1+2,f
  1528  0E3E  3000               	movlw	0
  1529  0E3F  05EB               	andwf	___fltol@f1+3,f
  1530  0E40                     i1l1339:
  1531  0E40  3096               	movlw	150
  1532  0E41  02ED               	subwf	___fltol@exp1,f
  1533  0E42                     i1l1341:
  1534  0E42  1FED               	btfss	___fltol@exp1,7
  1535  0E43  2E45               	goto	u147_21
  1536  0E44  2E46               	goto	u147_20
  1537  0E45                     u147_21:
  1538  0E45  2E64               	goto	i1l1351
  1539  0E46                     u147_20:
  1540  0E46                     i1l1343:
  1541  0E46  086D               	movf	___fltol@exp1,w
  1542  0E47  3A80               	xorlw	128
  1543  0E48  3E97               	addlw	151
  1544  0E49  1803               	skipnc
  1545  0E4A  2E4C               	goto	u148_21
  1546  0E4B  2E4D               	goto	u148_20
  1547  0E4C                     u148_21:
  1548  0E4C  2E4E               	goto	i1l1349
  1549  0E4D                     u148_20:
  1550  0E4D  2E09               	goto	i1l1329
  1551  0E4E                     i1l1349:
  1552  0E4E  3001               	movlw	1
  1553  0E4F                     u149_25:
  1554  0E4F  1003               	clrc
  1555  0E50  0CEB               	rrf	___fltol@f1+3,f
  1556  0E51  0CEA               	rrf	___fltol@f1+2,f
  1557  0E52  0CE9               	rrf	___fltol@f1+1,f
  1558  0E53  0CE8               	rrf	___fltol@f1,f
  1559  0E54  3EFF               	addlw	-1
  1560  0E55  1D03               	skipz
  1561  0E56  2E4F               	goto	u149_25
  1562  0E57  3001               	movlw	1
  1563  0E58  1683               	bsf	3,5	;RP0=1, select bank1
  1564  0E59  1303               	bcf	3,6	;RP1=0, select bank1
  1565  0E5A  00A0               	movwf	??___fltol^(0+128)
  1566  0E5B  0820               	movf	??___fltol^(0+128),w
  1567  0E5C  1283               	bcf	3,5	;RP0=0, select bank0
  1568  0E5D  1303               	bcf	3,6	;RP1=0, select bank0
  1569  0E5E  07ED               	addwf	___fltol@exp1,f
  1570  0E5F  1D03               	btfss	3,2
  1571  0E60  2E62               	goto	u150_21
  1572  0E61  2E63               	goto	u150_20
  1573  0E62                     u150_21:
  1574  0E62  2E4E               	goto	i1l1349
  1575  0E63                     u150_20:
  1576  0E63  2E83               	goto	i1l1359
  1577  0E64                     i1l1351:
  1578  0E64  3020               	movlw	32
  1579  0E65  026D               	subwf	___fltol@exp1,w
  1580  0E66  1C03               	skipc
  1581  0E67  2E69               	goto	u151_21
  1582  0E68  2E6A               	goto	u151_20
  1583  0E69                     u151_21:
  1584  0E69  2E7E               	goto	i1l356
  1585  0E6A                     u151_20:
  1586  0E6A  2E09               	goto	i1l1329
  1587  0E6B                     i1l1357:
  1588  0E6B  3001               	movlw	1
  1589  0E6C  1683               	bsf	3,5	;RP0=1, select bank1
  1590  0E6D  1303               	bcf	3,6	;RP1=0, select bank1
  1591  0E6E  00A0               	movwf	??___fltol^(0+128)
  1592  0E6F                     u152_25:
  1593  0E6F  1003               	clrc
  1594  0E70  1283               	bcf	3,5	;RP0=0, select bank0
  1595  0E71  1303               	bcf	3,6	;RP1=0, select bank0
  1596  0E72  0DE8               	rlf	___fltol@f1,f
  1597  0E73  0DE9               	rlf	___fltol@f1+1,f
  1598  0E74  0DEA               	rlf	___fltol@f1+2,f
  1599  0E75  0DEB               	rlf	___fltol@f1+3,f
  1600  0E76  1683               	bsf	3,5	;RP0=1, select bank1
  1601  0E77  1303               	bcf	3,6	;RP1=0, select bank1
  1602  0E78  0BA0               	decfsz	??___fltol^(0+128),f
  1603  0E79  2E6F               	goto	u152_25
  1604  0E7A  3001               	movlw	1
  1605  0E7B  1283               	bcf	3,5	;RP0=0, select bank0
  1606  0E7C  1303               	bcf	3,6	;RP1=0, select bank0
  1607  0E7D  02ED               	subwf	___fltol@exp1,f
  1608  0E7E                     i1l356:
  1609  0E7E  086D               	movf	___fltol@exp1,w
  1610  0E7F  1D03               	btfss	3,2
  1611  0E80  2E82               	goto	u153_21
  1612  0E81  2E83               	goto	u153_20
  1613  0E82                     u153_21:
  1614  0E82  2E6B               	goto	i1l1357
  1615  0E83                     u153_20:
  1616  0E83                     i1l1359:
  1617  0E83  086C               	movf	___fltol@sign1,w
  1618  0E84  1903               	btfsc	3,2
  1619  0E85  2E87               	goto	u154_21
  1620  0E86  2E88               	goto	u154_20
  1621  0E87                     u154_21:
  1622  0E87  2E93               	goto	i1l359
  1623  0E88                     u154_20:
  1624  0E88                     i1l1361:
  1625  0E88  09E8               	comf	___fltol@f1,f
  1626  0E89  09E9               	comf	___fltol@f1+1,f
  1627  0E8A  09EA               	comf	___fltol@f1+2,f
  1628  0E8B  09EB               	comf	___fltol@f1+3,f
  1629  0E8C  0AE8               	incf	___fltol@f1,f
  1630  0E8D  1903               	skipnz
  1631  0E8E  0AE9               	incf	___fltol@f1+1,f
  1632  0E8F  1903               	skipnz
  1633  0E90  0AEA               	incf	___fltol@f1+2,f
  1634  0E91  1903               	skipnz
  1635  0E92  0AEB               	incf	___fltol@f1+3,f
  1636  0E93                     i1l359:
  1637  0E93                     i1l349:
  1638  0E93  0008               	return
  1639  0E94                     __end_of___fltol:
  1640                           
  1641                           	psect	text6
  1642  0025                     __ptext6:	
  1643 ;; *************** function ___flmul *****************
  1644 ;; Defined at:
  1645 ;;		line 8 in file "C:\Program Files\Microchip\xc8\v2.35\pic\sources\c90\common\sprcmul.c"
  1646 ;; Parameters:    Size  Location     Type
  1647 ;;  b               4   26[BANK0 ] long 
  1648 ;;  a               4   30[BANK0 ] long 
  1649 ;; Auto vars:     Size  Location     Type
  1650 ;;  prod            4   46[BANK0 ] struct .
  1651 ;;  grs             4   40[BANK0 ] unsigned long 
  1652 ;;  temp            2   50[BANK0 ] struct .
  1653 ;;  bexp            1   45[BANK0 ] unsigned char 
  1654 ;;  aexp            1   44[BANK0 ] unsigned char 
  1655 ;;  sign            1   39[BANK0 ] unsigned char 
  1656 ;; Return value:  Size  Location     Type
  1657 ;;                  4   26[BANK0 ] unsigned char 
  1658 ;; Registers used:
  1659 ;;		wreg, status,2, status,0, btemp+1, pclath, cstack
  1660 ;; Tracked objects:
  1661 ;;		On entry : 0/0
  1662 ;;		On exit  : 0/0
  1663 ;;		Unchanged: 0/0
  1664 ;; Data sizes:     COMMON   BANK0   BANK1   BANK3   BANK2
  1665 ;;      Params:         0       8       0       0       0
  1666 ;;      Locals:         0      13       0       0       0
  1667 ;;      Temps:          0       5       0       0       0
  1668 ;;      Totals:         0      26       0       0       0
  1669 ;;Total ram usage:       26 bytes
  1670 ;; Hardware stack levels used: 1
  1671 ;; Hardware stack levels required when called: 1
  1672 ;; This function calls:
  1673 ;;		__Umul8_16
  1674 ;; This function is called by:
  1675 ;;		_map
  1676 ;; This function uses a non-reentrant model
  1677 ;;
  1678                           
  1679  0025                     ___flmul:	
  1680                           ;psect for function ___flmul
  1681                           
  1682  0025                     i1l1699:	
  1683                           ;incstack = 0
  1684                           ; Regs used in ___flmul: [wreg+status,2+status,0+btemp+1+pclath+cstack]
  1685                           
  1686  0025  1283               	bcf	3,5	;RP0=0, select bank0
  1687  0026  1303               	bcf	3,6	;RP1=0, select bank0
  1688  0027  083D               	movf	___flmul@b+3,w
  1689  0028  3980               	andlw	128
  1690  0029  00C2               	movwf	??___flmul
  1691  002A  0842               	movf	??___flmul,w
  1692  002B  00C7               	movwf	___flmul@sign
  1693  002C                     i1l1701:
  1694  002C  083D               	movf	___flmul@b+3,w
  1695  002D  00C2               	movwf	??___flmul
  1696  002E  0742               	addwf	??___flmul,w
  1697  002F  00C3               	movwf	??___flmul+1
  1698  0030  0843               	movf	??___flmul+1,w
  1699  0031  00CD               	movwf	___flmul@bexp
  1700  0032                     i1l1703:
  1701  0032  1FBC               	btfss	___flmul@b+2,7
  1702  0033  2835               	goto	u230_21
  1703  0034  2836               	goto	u230_20
  1704  0035                     u230_21:
  1705  0035  2837               	goto	i1l1707
  1706  0036                     u230_20:
  1707  0036                     i1l1705:
  1708  0036  144D               	bsf	___flmul@bexp,0
  1709  0037                     i1l1707:
  1710  0037  084D               	movf	___flmul@bexp,w
  1711  0038  1903               	btfsc	3,2
  1712  0039  283B               	goto	u231_21
  1713  003A  283C               	goto	u231_20
  1714  003B                     u231_21:
  1715  003B  284B               	goto	i1l1715
  1716  003C                     u231_20:
  1717  003C                     i1l1709:
  1718  003C  0A4D               	incf	___flmul@bexp,w
  1719  003D  1D03               	btfss	3,2
  1720  003E  2840               	goto	u232_21
  1721  003F  2841               	goto	u232_20
  1722  0040                     u232_21:
  1723  0040  2849               	goto	i1l1713
  1724  0041                     u232_20:
  1725  0041                     i1l1711:
  1726  0041  3000               	movlw	0
  1727  0042  00BD               	movwf	___flmul@b+3
  1728  0043  3000               	movlw	0
  1729  0044  00BC               	movwf	___flmul@b+2
  1730  0045  3000               	movlw	0
  1731  0046  00BB               	movwf	___flmul@b+1
  1732  0047  3000               	movlw	0
  1733  0048  00BA               	movwf	___flmul@b
  1734  0049                     i1l1713:
  1735  0049  17BC               	bsf	___flmul@b+2,7
  1736  004A  2853               	goto	i1l1717
  1737  004B                     i1l1715:
  1738  004B  3000               	movlw	0
  1739  004C  00BD               	movwf	___flmul@b+3
  1740  004D  3000               	movlw	0
  1741  004E  00BC               	movwf	___flmul@b+2
  1742  004F  3000               	movlw	0
  1743  0050  00BB               	movwf	___flmul@b+1
  1744  0051  3000               	movlw	0
  1745  0052  00BA               	movwf	___flmul@b
  1746  0053                     i1l1717:
  1747  0053  0841               	movf	___flmul@a+3,w
  1748  0054  3980               	andlw	128
  1749  0055  00C2               	movwf	??___flmul
  1750  0056  0842               	movf	??___flmul,w
  1751  0057  06C7               	xorwf	___flmul@sign,f
  1752  0058                     i1l1719:
  1753  0058  0841               	movf	___flmul@a+3,w
  1754  0059  00C2               	movwf	??___flmul
  1755  005A  0742               	addwf	??___flmul,w
  1756  005B  00C3               	movwf	??___flmul+1
  1757  005C  0843               	movf	??___flmul+1,w
  1758  005D  00CC               	movwf	___flmul@aexp
  1759  005E                     i1l1721:
  1760  005E  1FC0               	btfss	___flmul@a+2,7
  1761  005F  2861               	goto	u233_21
  1762  0060  2862               	goto	u233_20
  1763  0061                     u233_21:
  1764  0061  2863               	goto	i1l1725
  1765  0062                     u233_20:
  1766  0062                     i1l1723:
  1767  0062  144C               	bsf	___flmul@aexp,0
  1768  0063                     i1l1725:
  1769  0063  084C               	movf	___flmul@aexp,w
  1770  0064  1903               	btfsc	3,2
  1771  0065  2867               	goto	u234_21
  1772  0066  2868               	goto	u234_20
  1773  0067                     u234_21:
  1774  0067  2877               	goto	i1l1733
  1775  0068                     u234_20:
  1776  0068                     i1l1727:
  1777  0068  0A4C               	incf	___flmul@aexp,w
  1778  0069  1D03               	btfss	3,2
  1779  006A  286C               	goto	u235_21
  1780  006B  286D               	goto	u235_20
  1781  006C                     u235_21:
  1782  006C  2875               	goto	i1l1731
  1783  006D                     u235_20:
  1784  006D                     i1l1729:
  1785  006D  3000               	movlw	0
  1786  006E  00C1               	movwf	___flmul@a+3
  1787  006F  3000               	movlw	0
  1788  0070  00C0               	movwf	___flmul@a+2
  1789  0071  3000               	movlw	0
  1790  0072  00BF               	movwf	___flmul@a+1
  1791  0073  3000               	movlw	0
  1792  0074  00BE               	movwf	___flmul@a
  1793  0075                     i1l1731:
  1794  0075  17C0               	bsf	___flmul@a+2,7
  1795  0076  287F               	goto	i1l1735
  1796  0077                     i1l1733:
  1797  0077  3000               	movlw	0
  1798  0078  00C1               	movwf	___flmul@a+3
  1799  0079  3000               	movlw	0
  1800  007A  00C0               	movwf	___flmul@a+2
  1801  007B  3000               	movlw	0
  1802  007C  00BF               	movwf	___flmul@a+1
  1803  007D  3000               	movlw	0
  1804  007E  00BE               	movwf	___flmul@a
  1805  007F                     i1l1735:
  1806  007F  084C               	movf	___flmul@aexp,w
  1807  0080  1903               	btfsc	3,2
  1808  0081  2883               	goto	u236_21
  1809  0082  2884               	goto	u236_20
  1810  0083                     u236_21:
  1811  0083  2889               	goto	i1l1739
  1812  0084                     u236_20:
  1813  0084                     i1l1737:
  1814  0084  084D               	movf	___flmul@bexp,w
  1815  0085  1D03               	btfss	3,2
  1816  0086  2888               	goto	u237_21
  1817  0087  2889               	goto	u237_20
  1818  0088                     u237_21:
  1819  0088  2892               	goto	i1l1743
  1820  0089                     u237_20:
  1821  0089                     i1l1739:
  1822  0089  3000               	movlw	0
  1823  008A  00BD               	movwf	?___flmul+3
  1824  008B  3000               	movlw	0
  1825  008C  00BC               	movwf	?___flmul+2
  1826  008D  3000               	movlw	0
  1827  008E  00BB               	movwf	?___flmul+1
  1828  008F  3000               	movlw	0
  1829  0090  00BA               	movwf	?___flmul
  1830  0091  2B85               	goto	i1l552
  1831  0092                     i1l1743:
  1832  0092  083A               	movf	___flmul@b,w
  1833  0093  00C2               	movwf	??___flmul
  1834  0094  0842               	movf	??___flmul,w
  1835  0095  00F0               	movwf	__Umul8_16@multiplicand
  1836  0096  0840               	movf	___flmul@a+2,w
  1837  0097  120A  158A  2535  120A  118A  	fcall	__Umul8_16
  1838  009C  0871               	movf	?__Umul8_16+1,w
  1839  009D  1283               	bcf	3,5	;RP0=0, select bank0
  1840  009E  1303               	bcf	3,6	;RP1=0, select bank0
  1841  009F  00D3               	movwf	___flmul@temp+1
  1842  00A0  0870               	movf	?__Umul8_16,w
  1843  00A1  00D2               	movwf	___flmul@temp
  1844  00A2                     i1l1745:
  1845  00A2  0852               	movf	___flmul@temp,w
  1846  00A3  00C2               	movwf	??___flmul
  1847  00A4  01C3               	clrf	??___flmul+1
  1848  00A5  01C4               	clrf	??___flmul+2
  1849  00A6  01C5               	clrf	??___flmul+3
  1850  00A7  0845               	movf	??___flmul+3,w
  1851  00A8  00CB               	movwf	___flmul@grs+3
  1852  00A9  0844               	movf	??___flmul+2,w
  1853  00AA  00CA               	movwf	___flmul@grs+2
  1854  00AB  0843               	movf	??___flmul+1,w
  1855  00AC  00C9               	movwf	___flmul@grs+1
  1856  00AD  0842               	movf	??___flmul,w
  1857  00AE  00C8               	movwf	___flmul@grs
  1858  00AF                     i1l1747:
  1859  00AF  0853               	movf	___flmul@temp+1,w
  1860  00B0  00C2               	movwf	??___flmul
  1861  00B1  01C3               	clrf	??___flmul+1
  1862  00B2  01C4               	clrf	??___flmul+2
  1863  00B3  01C5               	clrf	??___flmul+3
  1864  00B4  0845               	movf	??___flmul+3,w
  1865  00B5  00D1               	movwf	___flmul@prod+3
  1866  00B6  0844               	movf	??___flmul+2,w
  1867  00B7  00D0               	movwf	___flmul@prod+2
  1868  00B8  0843               	movf	??___flmul+1,w
  1869  00B9  00CF               	movwf	___flmul@prod+1
  1870  00BA  0842               	movf	??___flmul,w
  1871  00BB  00CE               	movwf	___flmul@prod
  1872  00BC  083B               	movf	___flmul@b+1,w
  1873  00BD  00C2               	movwf	??___flmul
  1874  00BE  0842               	movf	??___flmul,w
  1875  00BF  00F0               	movwf	__Umul8_16@multiplicand
  1876  00C0  083F               	movf	___flmul@a+1,w
  1877  00C1  120A  158A  2535  120A  118A  	fcall	__Umul8_16
  1878  00C6  0871               	movf	?__Umul8_16+1,w
  1879  00C7  1283               	bcf	3,5	;RP0=0, select bank0
  1880  00C8  1303               	bcf	3,6	;RP1=0, select bank0
  1881  00C9  00D3               	movwf	___flmul@temp+1
  1882  00CA  0870               	movf	?__Umul8_16,w
  1883  00CB  00D2               	movwf	___flmul@temp
  1884  00CC                     i1l1749:
  1885  00CC  0852               	movf	___flmul@temp,w
  1886  00CD  00C2               	movwf	??___flmul
  1887  00CE  01C3               	clrf	??___flmul+1
  1888  00CF  01C4               	clrf	??___flmul+2
  1889  00D0  01C5               	clrf	??___flmul+3
  1890  00D1  0842               	movf	??___flmul,w
  1891  00D2  07C8               	addwf	___flmul@grs,f
  1892  00D3  0843               	movf	??___flmul+1,w
  1893  00D4  1103               	clrz
  1894  00D5  1803               	skipnc
  1895  00D6  3E01               	addlw	1
  1896  00D7  1903               	skipnz
  1897  00D8  28DA               	goto	u238_21
  1898  00D9  07C9               	addwf	___flmul@grs+1,f
  1899  00DA                     u238_21:
  1900  00DA  0844               	movf	??___flmul+2,w
  1901  00DB  1103               	clrz
  1902  00DC  1803               	skipnc
  1903  00DD  3E01               	addlw	1
  1904  00DE  1903               	skipnz
  1905  00DF  28E1               	goto	u238_22
  1906  00E0  07CA               	addwf	___flmul@grs+2,f
  1907  00E1                     u238_22:
  1908  00E1  0845               	movf	??___flmul+3,w
  1909  00E2  1103               	clrz
  1910  00E3  1803               	skipnc
  1911  00E4  3E01               	addlw	1
  1912  00E5  1903               	skipnz
  1913  00E6  28E8               	goto	u238_23
  1914  00E7  07CB               	addwf	___flmul@grs+3,f
  1915  00E8                     u238_23:
  1916  00E8                     i1l1751:
  1917  00E8  0853               	movf	___flmul@temp+1,w
  1918  00E9  00C2               	movwf	??___flmul
  1919  00EA  01C3               	clrf	??___flmul+1
  1920  00EB  01C4               	clrf	??___flmul+2
  1921  00EC  01C5               	clrf	??___flmul+3
  1922  00ED  0842               	movf	??___flmul,w
  1923  00EE  07CE               	addwf	___flmul@prod,f
  1924  00EF  0843               	movf	??___flmul+1,w
  1925  00F0  1103               	clrz
  1926  00F1  1803               	skipnc
  1927  00F2  3E01               	addlw	1
  1928  00F3  1903               	skipnz
  1929  00F4  28F6               	goto	u239_21
  1930  00F5  07CF               	addwf	___flmul@prod+1,f
  1931  00F6                     u239_21:
  1932  00F6  0844               	movf	??___flmul+2,w
  1933  00F7  1103               	clrz
  1934  00F8  1803               	skipnc
  1935  00F9  3E01               	addlw	1
  1936  00FA  1903               	skipnz
  1937  00FB  28FD               	goto	u239_22
  1938  00FC  07D0               	addwf	___flmul@prod+2,f
  1939  00FD                     u239_22:
  1940  00FD  0845               	movf	??___flmul+3,w
  1941  00FE  1103               	clrz
  1942  00FF  1803               	skipnc
  1943  0100  3E01               	addlw	1
  1944  0101  1903               	skipnz
  1945  0102  2904               	goto	u239_23
  1946  0103  07D1               	addwf	___flmul@prod+3,f
  1947  0104                     u239_23:
  1948  0104  083C               	movf	___flmul@b+2,w
  1949  0105  00C2               	movwf	??___flmul
  1950  0106  0842               	movf	??___flmul,w
  1951  0107  00F0               	movwf	__Umul8_16@multiplicand
  1952  0108  083E               	movf	___flmul@a,w
  1953  0109  120A  158A  2535  120A  118A  	fcall	__Umul8_16
  1954  010E  0871               	movf	?__Umul8_16+1,w
  1955  010F  1283               	bcf	3,5	;RP0=0, select bank0
  1956  0110  1303               	bcf	3,6	;RP1=0, select bank0
  1957  0111  00D3               	movwf	___flmul@temp+1
  1958  0112  0870               	movf	?__Umul8_16,w
  1959  0113  00D2               	movwf	___flmul@temp
  1960  0114                     i1l1753:
  1961  0114  0852               	movf	___flmul@temp,w
  1962  0115  00C2               	movwf	??___flmul
  1963  0116  01C3               	clrf	??___flmul+1
  1964  0117  01C4               	clrf	??___flmul+2
  1965  0118  01C5               	clrf	??___flmul+3
  1966  0119  0842               	movf	??___flmul,w
  1967  011A  07C8               	addwf	___flmul@grs,f
  1968  011B  0843               	movf	??___flmul+1,w
  1969  011C  1103               	clrz
  1970  011D  1803               	skipnc
  1971  011E  3E01               	addlw	1
  1972  011F  1903               	skipnz
  1973  0120  2922               	goto	u240_21
  1974  0121  07C9               	addwf	___flmul@grs+1,f
  1975  0122                     u240_21:
  1976  0122  0844               	movf	??___flmul+2,w
  1977  0123  1103               	clrz
  1978  0124  1803               	skipnc
  1979  0125  3E01               	addlw	1
  1980  0126  1903               	skipnz
  1981  0127  2929               	goto	u240_22
  1982  0128  07CA               	addwf	___flmul@grs+2,f
  1983  0129                     u240_22:
  1984  0129  0845               	movf	??___flmul+3,w
  1985  012A  1103               	clrz
  1986  012B  1803               	skipnc
  1987  012C  3E01               	addlw	1
  1988  012D  1903               	skipnz
  1989  012E  2930               	goto	u240_23
  1990  012F  07CB               	addwf	___flmul@grs+3,f
  1991  0130                     u240_23:
  1992  0130                     i1l1755:
  1993  0130  0853               	movf	___flmul@temp+1,w
  1994  0131  00C2               	movwf	??___flmul
  1995  0132  01C3               	clrf	??___flmul+1
  1996  0133  01C4               	clrf	??___flmul+2
  1997  0134  01C5               	clrf	??___flmul+3
  1998  0135  0842               	movf	??___flmul,w
  1999  0136  07CE               	addwf	___flmul@prod,f
  2000  0137  0843               	movf	??___flmul+1,w
  2001  0138  1103               	clrz
  2002  0139  1803               	skipnc
  2003  013A  3E01               	addlw	1
  2004  013B  1903               	skipnz
  2005  013C  293E               	goto	u241_21
  2006  013D  07CF               	addwf	___flmul@prod+1,f
  2007  013E                     u241_21:
  2008  013E  0844               	movf	??___flmul+2,w
  2009  013F  1103               	clrz
  2010  0140  1803               	skipnc
  2011  0141  3E01               	addlw	1
  2012  0142  1903               	skipnz
  2013  0143  2945               	goto	u241_22
  2014  0144  07D0               	addwf	___flmul@prod+2,f
  2015  0145                     u241_22:
  2016  0145  0845               	movf	??___flmul+3,w
  2017  0146  1103               	clrz
  2018  0147  1803               	skipnc
  2019  0148  3E01               	addlw	1
  2020  0149  1903               	skipnz
  2021  014A  294C               	goto	u241_23
  2022  014B  07D1               	addwf	___flmul@prod+3,f
  2023  014C                     u241_23:
  2024  014C                     i1l1757:
  2025  014C  3008               	movlw	8
  2026  014D  00C2               	movwf	??___flmul
  2027  014E                     u242_25:
  2028  014E  1003               	clrc
  2029  014F  0DC8               	rlf	___flmul@grs,f
  2030  0150  0DC9               	rlf	___flmul@grs+1,f
  2031  0151  0DCA               	rlf	___flmul@grs+2,f
  2032  0152  0DCB               	rlf	___flmul@grs+3,f
  2033  0153  0BC2               	decfsz	??___flmul,f
  2034  0154  294E               	goto	u242_25
  2035  0155                     i1l1759:
  2036  0155  083B               	movf	___flmul@b+1,w
  2037  0156  00C2               	movwf	??___flmul
  2038  0157  0842               	movf	??___flmul,w
  2039  0158  00F0               	movwf	__Umul8_16@multiplicand
  2040  0159  083E               	movf	___flmul@a,w
  2041  015A  120A  158A  2535  120A  118A  	fcall	__Umul8_16
  2042  015F  0871               	movf	?__Umul8_16+1,w
  2043  0160  1283               	bcf	3,5	;RP0=0, select bank0
  2044  0161  1303               	bcf	3,6	;RP1=0, select bank0
  2045  0162  00D3               	movwf	___flmul@temp+1
  2046  0163  0870               	movf	?__Umul8_16,w
  2047  0164  00D2               	movwf	___flmul@temp
  2048  0165                     i1l1761:
  2049  0165  0852               	movf	___flmul@temp,w
  2050  0166  00C2               	movwf	??___flmul
  2051  0167  0853               	movf	___flmul@temp+1,w
  2052  0168  00C3               	movwf	??___flmul+1
  2053  0169  01C4               	clrf	??___flmul+2
  2054  016A  01C5               	clrf	??___flmul+3
  2055  016B  0842               	movf	??___flmul,w
  2056  016C  07C8               	addwf	___flmul@grs,f
  2057  016D  0843               	movf	??___flmul+1,w
  2058  016E  1103               	clrz
  2059  016F  1803               	skipnc
  2060  0170  3E01               	addlw	1
  2061  0171  1903               	skipnz
  2062  0172  2974               	goto	u243_21
  2063  0173  07C9               	addwf	___flmul@grs+1,f
  2064  0174                     u243_21:
  2065  0174  0844               	movf	??___flmul+2,w
  2066  0175  1103               	clrz
  2067  0176  1803               	skipnc
  2068  0177  3E01               	addlw	1
  2069  0178  1903               	skipnz
  2070  0179  297B               	goto	u243_22
  2071  017A  07CA               	addwf	___flmul@grs+2,f
  2072  017B                     u243_22:
  2073  017B  0845               	movf	??___flmul+3,w
  2074  017C  1103               	clrz
  2075  017D  1803               	skipnc
  2076  017E  3E01               	addlw	1
  2077  017F  1903               	skipnz
  2078  0180  2982               	goto	u243_23
  2079  0181  07CB               	addwf	___flmul@grs+3,f
  2080  0182                     u243_23:
  2081  0182                     i1l1763:
  2082  0182  083A               	movf	___flmul@b,w
  2083  0183  00C2               	movwf	??___flmul
  2084  0184  0842               	movf	??___flmul,w
  2085  0185  00F0               	movwf	__Umul8_16@multiplicand
  2086  0186  083F               	movf	___flmul@a+1,w
  2087  0187  120A  158A  2535  120A  118A  	fcall	__Umul8_16
  2088  018C  0871               	movf	?__Umul8_16+1,w
  2089  018D  1283               	bcf	3,5	;RP0=0, select bank0
  2090  018E  1303               	bcf	3,6	;RP1=0, select bank0
  2091  018F  00D3               	movwf	___flmul@temp+1
  2092  0190  0870               	movf	?__Umul8_16,w
  2093  0191  00D2               	movwf	___flmul@temp
  2094  0192                     i1l1765:
  2095  0192  0852               	movf	___flmul@temp,w
  2096  0193  00C2               	movwf	??___flmul
  2097  0194  0853               	movf	___flmul@temp+1,w
  2098  0195  00C3               	movwf	??___flmul+1
  2099  0196  01C4               	clrf	??___flmul+2
  2100  0197  01C5               	clrf	??___flmul+3
  2101  0198  0842               	movf	??___flmul,w
  2102  0199  07C8               	addwf	___flmul@grs,f
  2103  019A  0843               	movf	??___flmul+1,w
  2104  019B  1103               	clrz
  2105  019C  1803               	skipnc
  2106  019D  3E01               	addlw	1
  2107  019E  1903               	skipnz
  2108  019F  29A1               	goto	u244_21
  2109  01A0  07C9               	addwf	___flmul@grs+1,f
  2110  01A1                     u244_21:
  2111  01A1  0844               	movf	??___flmul+2,w
  2112  01A2  1103               	clrz
  2113  01A3  1803               	skipnc
  2114  01A4  3E01               	addlw	1
  2115  01A5  1903               	skipnz
  2116  01A6  29A8               	goto	u244_22
  2117  01A7  07CA               	addwf	___flmul@grs+2,f
  2118  01A8                     u244_22:
  2119  01A8  0845               	movf	??___flmul+3,w
  2120  01A9  1103               	clrz
  2121  01AA  1803               	skipnc
  2122  01AB  3E01               	addlw	1
  2123  01AC  1903               	skipnz
  2124  01AD  29AF               	goto	u244_23
  2125  01AE  07CB               	addwf	___flmul@grs+3,f
  2126  01AF                     u244_23:
  2127  01AF                     i1l1767:
  2128  01AF  3008               	movlw	8
  2129  01B0  00C2               	movwf	??___flmul
  2130  01B1                     u245_25:
  2131  01B1  1003               	clrc
  2132  01B2  0DC8               	rlf	___flmul@grs,f
  2133  01B3  0DC9               	rlf	___flmul@grs+1,f
  2134  01B4  0DCA               	rlf	___flmul@grs+2,f
  2135  01B5  0DCB               	rlf	___flmul@grs+3,f
  2136  01B6  0BC2               	decfsz	??___flmul,f
  2137  01B7  29B1               	goto	u245_25
  2138  01B8  083A               	movf	___flmul@b,w
  2139  01B9  00C2               	movwf	??___flmul
  2140  01BA  0842               	movf	??___flmul,w
  2141  01BB  00F0               	movwf	__Umul8_16@multiplicand
  2142  01BC  083E               	movf	___flmul@a,w
  2143  01BD  120A  158A  2535  120A  118A  	fcall	__Umul8_16
  2144  01C2  0871               	movf	?__Umul8_16+1,w
  2145  01C3  1283               	bcf	3,5	;RP0=0, select bank0
  2146  01C4  1303               	bcf	3,6	;RP1=0, select bank0
  2147  01C5  00D3               	movwf	___flmul@temp+1
  2148  01C6  0870               	movf	?__Umul8_16,w
  2149  01C7  00D2               	movwf	___flmul@temp
  2150  01C8                     i1l1769:
  2151  01C8  0852               	movf	___flmul@temp,w
  2152  01C9  00C2               	movwf	??___flmul
  2153  01CA  0853               	movf	___flmul@temp+1,w
  2154  01CB  00C3               	movwf	??___flmul+1
  2155  01CC  01C4               	clrf	??___flmul+2
  2156  01CD  01C5               	clrf	??___flmul+3
  2157  01CE  0842               	movf	??___flmul,w
  2158  01CF  07C8               	addwf	___flmul@grs,f
  2159  01D0  0843               	movf	??___flmul+1,w
  2160  01D1  1103               	clrz
  2161  01D2  1803               	skipnc
  2162  01D3  3E01               	addlw	1
  2163  01D4  1903               	skipnz
  2164  01D5  29D7               	goto	u246_21
  2165  01D6  07C9               	addwf	___flmul@grs+1,f
  2166  01D7                     u246_21:
  2167  01D7  0844               	movf	??___flmul+2,w
  2168  01D8  1103               	clrz
  2169  01D9  1803               	skipnc
  2170  01DA  3E01               	addlw	1
  2171  01DB  1903               	skipnz
  2172  01DC  29DE               	goto	u246_22
  2173  01DD  07CA               	addwf	___flmul@grs+2,f
  2174  01DE                     u246_22:
  2175  01DE  0845               	movf	??___flmul+3,w
  2176  01DF  1103               	clrz
  2177  01E0  1803               	skipnc
  2178  01E1  3E01               	addlw	1
  2179  01E2  1903               	skipnz
  2180  01E3  29E5               	goto	u246_23
  2181  01E4  07CB               	addwf	___flmul@grs+3,f
  2182  01E5                     u246_23:
  2183  01E5                     i1l1771:
  2184  01E5  083B               	movf	___flmul@b+1,w
  2185  01E6  00C2               	movwf	??___flmul
  2186  01E7  0842               	movf	??___flmul,w
  2187  01E8  00F0               	movwf	__Umul8_16@multiplicand
  2188  01E9  0840               	movf	___flmul@a+2,w
  2189  01EA  120A  158A  2535  120A  118A  	fcall	__Umul8_16
  2190  01EF  0871               	movf	?__Umul8_16+1,w
  2191  01F0  1283               	bcf	3,5	;RP0=0, select bank0
  2192  01F1  1303               	bcf	3,6	;RP1=0, select bank0
  2193  01F2  00D3               	movwf	___flmul@temp+1
  2194  01F3  0870               	movf	?__Umul8_16,w
  2195  01F4  00D2               	movwf	___flmul@temp
  2196  01F5  0852               	movf	___flmul@temp,w
  2197  01F6  00C2               	movwf	??___flmul
  2198  01F7  0853               	movf	___flmul@temp+1,w
  2199  01F8  00C3               	movwf	??___flmul+1
  2200  01F9  01C4               	clrf	??___flmul+2
  2201  01FA  01C5               	clrf	??___flmul+3
  2202  01FB  0842               	movf	??___flmul,w
  2203  01FC  07CE               	addwf	___flmul@prod,f
  2204  01FD  0843               	movf	??___flmul+1,w
  2205  01FE  1103               	clrz
  2206  01FF  1803               	skipnc
  2207  0200  3E01               	addlw	1
  2208  0201  1903               	skipnz
  2209  0202  2A04               	goto	u247_21
  2210  0203  07CF               	addwf	___flmul@prod+1,f
  2211  0204                     u247_21:
  2212  0204  0844               	movf	??___flmul+2,w
  2213  0205  1103               	clrz
  2214  0206  1803               	skipnc
  2215  0207  3E01               	addlw	1
  2216  0208  1903               	skipnz
  2217  0209  2A0B               	goto	u247_22
  2218  020A  07D0               	addwf	___flmul@prod+2,f
  2219  020B                     u247_22:
  2220  020B  0845               	movf	??___flmul+3,w
  2221  020C  1103               	clrz
  2222  020D  1803               	skipnc
  2223  020E  3E01               	addlw	1
  2224  020F  1903               	skipnz
  2225  0210  2A12               	goto	u247_23
  2226  0211  07D1               	addwf	___flmul@prod+3,f
  2227  0212                     u247_23:
  2228  0212                     i1l1773:
  2229  0212  083C               	movf	___flmul@b+2,w
  2230  0213  00C2               	movwf	??___flmul
  2231  0214  0842               	movf	??___flmul,w
  2232  0215  00F0               	movwf	__Umul8_16@multiplicand
  2233  0216  083F               	movf	___flmul@a+1,w
  2234  0217  120A  158A  2535  120A  118A  	fcall	__Umul8_16
  2235  021C  0871               	movf	?__Umul8_16+1,w
  2236  021D  1283               	bcf	3,5	;RP0=0, select bank0
  2237  021E  1303               	bcf	3,6	;RP1=0, select bank0
  2238  021F  00D3               	movwf	___flmul@temp+1
  2239  0220  0870               	movf	?__Umul8_16,w
  2240  0221  00D2               	movwf	___flmul@temp
  2241  0222                     i1l1775:
  2242  0222  0852               	movf	___flmul@temp,w
  2243  0223  00C2               	movwf	??___flmul
  2244  0224  0853               	movf	___flmul@temp+1,w
  2245  0225  00C3               	movwf	??___flmul+1
  2246  0226  01C4               	clrf	??___flmul+2
  2247  0227  01C5               	clrf	??___flmul+3
  2248  0228  0842               	movf	??___flmul,w
  2249  0229  07CE               	addwf	___flmul@prod,f
  2250  022A  0843               	movf	??___flmul+1,w
  2251  022B  1103               	clrz
  2252  022C  1803               	skipnc
  2253  022D  3E01               	addlw	1
  2254  022E  1903               	skipnz
  2255  022F  2A31               	goto	u248_21
  2256  0230  07CF               	addwf	___flmul@prod+1,f
  2257  0231                     u248_21:
  2258  0231  0844               	movf	??___flmul+2,w
  2259  0232  1103               	clrz
  2260  0233  1803               	skipnc
  2261  0234  3E01               	addlw	1
  2262  0235  1903               	skipnz
  2263  0236  2A38               	goto	u248_22
  2264  0237  07D0               	addwf	___flmul@prod+2,f
  2265  0238                     u248_22:
  2266  0238  0845               	movf	??___flmul+3,w
  2267  0239  1103               	clrz
  2268  023A  1803               	skipnc
  2269  023B  3E01               	addlw	1
  2270  023C  1903               	skipnz
  2271  023D  2A3F               	goto	u248_23
  2272  023E  07D1               	addwf	___flmul@prod+3,f
  2273  023F                     u248_23:
  2274  023F  083C               	movf	___flmul@b+2,w
  2275  0240  00C2               	movwf	??___flmul
  2276  0241  0842               	movf	??___flmul,w
  2277  0242  00F0               	movwf	__Umul8_16@multiplicand
  2278  0243  0840               	movf	___flmul@a+2,w
  2279  0244  120A  158A  2535  120A  118A  	fcall	__Umul8_16
  2280  0249  0871               	movf	?__Umul8_16+1,w
  2281  024A  1283               	bcf	3,5	;RP0=0, select bank0
  2282  024B  1303               	bcf	3,6	;RP1=0, select bank0
  2283  024C  00D3               	movwf	___flmul@temp+1
  2284  024D  0870               	movf	?__Umul8_16,w
  2285  024E  00D2               	movwf	___flmul@temp
  2286  024F                     i1l1777:
  2287  024F  0852               	movf	___flmul@temp,w
  2288  0250  00C2               	movwf	??___flmul
  2289  0251  0853               	movf	___flmul@temp+1,w
  2290  0252  00C3               	movwf	??___flmul+1
  2291  0253  01C4               	clrf	??___flmul+2
  2292  0254  01C5               	clrf	??___flmul+3
  2293  0255  3008               	movlw	8
  2294  0256                     u249_25:
  2295  0256  1003               	clrc
  2296  0257  0DC2               	rlf	??___flmul,f
  2297  0258  0DC3               	rlf	??___flmul+1,f
  2298  0259  0DC4               	rlf	??___flmul+2,f
  2299  025A  0DC5               	rlf	??___flmul+3,f
  2300  025B                     u249_20:
  2301  025B  3EFF               	addlw	-1
  2302  025C  1D03               	skipz
  2303  025D  2A56               	goto	u249_25
  2304  025E  0842               	movf	??___flmul,w
  2305  025F  07CE               	addwf	___flmul@prod,f
  2306  0260  0843               	movf	??___flmul+1,w
  2307  0261  1103               	clrz
  2308  0262  1803               	skipnc
  2309  0263  3E01               	addlw	1
  2310  0264  1903               	skipnz
  2311  0265  2A67               	goto	u250_21
  2312  0266  07CF               	addwf	___flmul@prod+1,f
  2313  0267                     u250_21:
  2314  0267  0844               	movf	??___flmul+2,w
  2315  0268  1103               	clrz
  2316  0269  1803               	skipnc
  2317  026A  3E01               	addlw	1
  2318  026B  1903               	skipnz
  2319  026C  2A6E               	goto	u250_22
  2320  026D  07D0               	addwf	___flmul@prod+2,f
  2321  026E                     u250_22:
  2322  026E  0845               	movf	??___flmul+3,w
  2323  026F  1103               	clrz
  2324  0270  1803               	skipnc
  2325  0271  3E01               	addlw	1
  2326  0272  1903               	skipnz
  2327  0273  2A75               	goto	u250_23
  2328  0274  07D1               	addwf	___flmul@prod+3,f
  2329  0275                     u250_23:
  2330  0275                     i1l1779:
  2331  0275  0848               	movf	___flmul@grs,w
  2332  0276  00C2               	movwf	??___flmul
  2333  0277  0849               	movf	___flmul@grs+1,w
  2334  0278  00C3               	movwf	??___flmul+1
  2335  0279  084A               	movf	___flmul@grs+2,w
  2336  027A  00C4               	movwf	??___flmul+2
  2337  027B  084B               	movf	___flmul@grs+3,w
  2338  027C  00C5               	movwf	??___flmul+3
  2339  027D  3018               	movlw	24
  2340  027E                     u251_25:
  2341  027E  1003               	clrc
  2342  027F  0CC5               	rrf	??___flmul+3,f
  2343  0280  0CC4               	rrf	??___flmul+2,f
  2344  0281  0CC3               	rrf	??___flmul+1,f
  2345  0282  0CC2               	rrf	??___flmul,f
  2346  0283                     u251_20:
  2347  0283  3EFF               	addlw	-1
  2348  0284  1D03               	skipz
  2349  0285  2A7E               	goto	u251_25
  2350  0286  0842               	movf	??___flmul,w
  2351  0287  07CE               	addwf	___flmul@prod,f
  2352  0288  0843               	movf	??___flmul+1,w
  2353  0289  1103               	clrz
  2354  028A  1803               	skipnc
  2355  028B  3E01               	addlw	1
  2356  028C  1903               	skipnz
  2357  028D  2A8F               	goto	u252_21
  2358  028E  07CF               	addwf	___flmul@prod+1,f
  2359  028F                     u252_21:
  2360  028F  0844               	movf	??___flmul+2,w
  2361  0290  1103               	clrz
  2362  0291  1803               	skipnc
  2363  0292  3E01               	addlw	1
  2364  0293  1903               	skipnz
  2365  0294  2A96               	goto	u252_22
  2366  0295  07D0               	addwf	___flmul@prod+2,f
  2367  0296                     u252_22:
  2368  0296  0845               	movf	??___flmul+3,w
  2369  0297  1103               	clrz
  2370  0298  1803               	skipnc
  2371  0299  3E01               	addlw	1
  2372  029A  1903               	skipnz
  2373  029B  2A9D               	goto	u252_23
  2374  029C  07D1               	addwf	___flmul@prod+3,f
  2375  029D                     u252_23:
  2376  029D                     i1l1781:
  2377  029D  3008               	movlw	8
  2378  029E  00C2               	movwf	??___flmul
  2379  029F                     u253_25:
  2380  029F  1003               	clrc
  2381  02A0  0DC8               	rlf	___flmul@grs,f
  2382  02A1  0DC9               	rlf	___flmul@grs+1,f
  2383  02A2  0DCA               	rlf	___flmul@grs+2,f
  2384  02A3  0DCB               	rlf	___flmul@grs+3,f
  2385  02A4  0BC2               	decfsz	??___flmul,f
  2386  02A5  2A9F               	goto	u253_25
  2387  02A6                     i1l1783:
  2388  02A6  084D               	movf	___flmul@bexp,w
  2389  02A7  074C               	addwf	___flmul@aexp,w
  2390  02A8  00C2               	movwf	??___flmul
  2391  02A9  01C3               	clrf	??___flmul+1
  2392  02AA  0DC3               	rlf	??___flmul+1,f
  2393  02AB  0842               	movf	??___flmul,w
  2394  02AC  3E82               	addlw	130
  2395  02AD  00D2               	movwf	___flmul@temp
  2396  02AE  0843               	movf	??___flmul+1,w
  2397  02AF  1803               	skipnc
  2398  02B0  3E01               	addlw	1
  2399  02B1  3EFF               	addlw	255
  2400  02B2  00D3               	movwf	___flmul@temp+1
  2401  02B3  2AD1               	goto	i1l1795
  2402  02B4                     i1l1785:
  2403  02B4  3001               	movlw	1
  2404  02B5  00C2               	movwf	??___flmul
  2405  02B6                     u254_25:
  2406  02B6  1003               	clrc
  2407  02B7  0DCE               	rlf	___flmul@prod,f
  2408  02B8  0DCF               	rlf	___flmul@prod+1,f
  2409  02B9  0DD0               	rlf	___flmul@prod+2,f
  2410  02BA  0DD1               	rlf	___flmul@prod+3,f
  2411  02BB  0BC2               	decfsz	??___flmul,f
  2412  02BC  2AB6               	goto	u254_25
  2413  02BD                     i1l1787:
  2414  02BD  1FCB               	btfss	___flmul@grs+3,7
  2415  02BE  2AC0               	goto	u255_21
  2416  02BF  2AC1               	goto	u255_20
  2417  02C0                     u255_21:
  2418  02C0  2AC2               	goto	i1l1791
  2419  02C1                     u255_20:
  2420  02C1                     i1l1789:
  2421  02C1  144E               	bsf	___flmul@prod,0
  2422  02C2                     i1l1791:
  2423  02C2  3001               	movlw	1
  2424  02C3  00C2               	movwf	??___flmul
  2425  02C4                     u256_25:
  2426  02C4  1003               	clrc
  2427  02C5  0DC8               	rlf	___flmul@grs,f
  2428  02C6  0DC9               	rlf	___flmul@grs+1,f
  2429  02C7  0DCA               	rlf	___flmul@grs+2,f
  2430  02C8  0DCB               	rlf	___flmul@grs+3,f
  2431  02C9  0BC2               	decfsz	??___flmul,f
  2432  02CA  2AC4               	goto	u256_25
  2433  02CB                     i1l1793:
  2434  02CB  30FF               	movlw	255
  2435  02CC  07D2               	addwf	___flmul@temp,f
  2436  02CD  1803               	skipnc
  2437  02CE  0AD3               	incf	___flmul@temp+1,f
  2438  02CF  30FF               	movlw	255
  2439  02D0  07D3               	addwf	___flmul@temp+1,f
  2440  02D1                     i1l1795:
  2441  02D1  1FD0               	btfss	___flmul@prod+2,7
  2442  02D2  2AD4               	goto	u257_21
  2443  02D3  2AD5               	goto	u257_20
  2444  02D4                     u257_21:
  2445  02D4  2AB4               	goto	i1l1785
  2446  02D5                     u257_20:
  2447  02D5                     i1l1797:
  2448  02D5  01CC               	clrf	___flmul@aexp
  2449  02D6                     i1l1799:
  2450  02D6  1FCB               	btfss	___flmul@grs+3,7
  2451  02D7  2AD9               	goto	u258_21
  2452  02D8  2ADA               	goto	u258_20
  2453  02D9                     u258_21:
  2454  02D9  2AF6               	goto	i1l1807
  2455  02DA                     u258_20:
  2456  02DA                     i1l1801:
  2457  02DA  30FF               	movlw	255
  2458  02DB  0548               	andwf	___flmul@grs,w
  2459  02DC  00C2               	movwf	??___flmul
  2460  02DD  30FF               	movlw	255
  2461  02DE  0549               	andwf	___flmul@grs+1,w
  2462  02DF  00C3               	movwf	??___flmul+1
  2463  02E0  30FF               	movlw	255
  2464  02E1  054A               	andwf	___flmul@grs+2,w
  2465  02E2  00C4               	movwf	??___flmul+2
  2466  02E3  307F               	movlw	127
  2467  02E4  054B               	andwf	___flmul@grs+3,w
  2468  02E5  00C5               	movwf	??___flmul+3
  2469  02E6  0845               	movf	??___flmul+3,w
  2470  02E7  0444               	iorwf	??___flmul+2,w
  2471  02E8  0443               	iorwf	??___flmul+1,w
  2472  02E9  0442               	iorwf	??___flmul,w
  2473  02EA  1903               	skipnz
  2474  02EB  2AED               	goto	u259_21
  2475  02EC  2AEE               	goto	u259_20
  2476  02ED                     u259_21:
  2477  02ED  2AF1               	goto	i1l558
  2478  02EE                     u259_20:
  2479  02EE                     i1l1803:
  2480  02EE  01CC               	clrf	___flmul@aexp
  2481  02EF  0ACC               	incf	___flmul@aexp,f
  2482  02F0  2AF6               	goto	i1l1807
  2483  02F1                     i1l558:
  2484  02F1  1C4E               	btfss	___flmul@prod,0
  2485  02F2  2AF4               	goto	u260_21
  2486  02F3  2AF5               	goto	u260_20
  2487  02F4                     u260_21:
  2488  02F4  2AF6               	goto	i1l1807
  2489  02F5                     u260_20:
  2490  02F5  2AEE               	goto	i1l1803
  2491  02F6                     i1l1807:
  2492  02F6  084C               	movf	___flmul@aexp,w
  2493  02F7  1903               	btfsc	3,2
  2494  02F8  2AFA               	goto	u261_21
  2495  02F9  2AFB               	goto	u261_20
  2496  02FA                     u261_21:
  2497  02FA  2B2C               	goto	i1l1817
  2498  02FB                     u261_20:
  2499  02FB                     i1l1809:
  2500  02FB  3001               	movlw	1
  2501  02FC  07CE               	addwf	___flmul@prod,f
  2502  02FD  3000               	movlw	0
  2503  02FE  1803               	skipnc
  2504  02FF  3001               	movlw	1
  2505  0300  07CF               	addwf	___flmul@prod+1,f
  2506  0301  3000               	movlw	0
  2507  0302  1803               	skipnc
  2508  0303  3001               	movlw	1
  2509  0304  07D0               	addwf	___flmul@prod+2,f
  2510  0305  3000               	movlw	0
  2511  0306  1803               	skipnc
  2512  0307  3001               	movlw	1
  2513  0308  07D1               	addwf	___flmul@prod+3,f
  2514  0309                     i1l1811:
  2515  0309  1C51               	btfss	___flmul@prod+3,0
  2516  030A  2B0C               	goto	u262_21
  2517  030B  2B0D               	goto	u262_20
  2518  030C                     u262_21:
  2519  030C  2B2C               	goto	i1l1817
  2520  030D                     u262_20:
  2521  030D                     i1l1813:
  2522  030D  084E               	movf	___flmul@prod,w
  2523  030E  00C2               	movwf	??___flmul
  2524  030F  084F               	movf	___flmul@prod+1,w
  2525  0310  00C3               	movwf	??___flmul+1
  2526  0311  0850               	movf	___flmul@prod+2,w
  2527  0312  00C4               	movwf	??___flmul+2
  2528  0313  0851               	movf	___flmul@prod+3,w
  2529  0314  00C5               	movwf	??___flmul+3
  2530  0315  3001               	movlw	1
  2531  0316  00C6               	movwf	??___flmul+4
  2532  0317                     u263_25:
  2533  0317  0D45               	rlf	??___flmul+3,w
  2534  0318  0CC5               	rrf	??___flmul+3,f
  2535  0319  0CC4               	rrf	??___flmul+2,f
  2536  031A  0CC3               	rrf	??___flmul+1,f
  2537  031B  0CC2               	rrf	??___flmul,f
  2538  031C                     u263_20:
  2539  031C  0BC6               	decfsz	??___flmul+4,f
  2540  031D  2B17               	goto	u263_25
  2541  031E  0845               	movf	??___flmul+3,w
  2542  031F  00D1               	movwf	___flmul@prod+3
  2543  0320  0844               	movf	??___flmul+2,w
  2544  0321  00D0               	movwf	___flmul@prod+2
  2545  0322  0843               	movf	??___flmul+1,w
  2546  0323  00CF               	movwf	___flmul@prod+1
  2547  0324  0842               	movf	??___flmul,w
  2548  0325  00CE               	movwf	___flmul@prod
  2549  0326                     i1l1815:
  2550  0326  3001               	movlw	1
  2551  0327  07D2               	addwf	___flmul@temp,f
  2552  0328  1803               	skipnc
  2553  0329  0AD3               	incf	___flmul@temp+1,f
  2554  032A  3000               	movlw	0
  2555  032B  07D3               	addwf	___flmul@temp+1,f
  2556  032C                     i1l1817:
  2557  032C  0853               	movf	___flmul@temp+1,w
  2558  032D  3A80               	xorlw	128
  2559  032E  00FF               	movwf	btemp+1
  2560  032F  3080               	movlw	128
  2561  0330  027F               	subwf	btemp+1,w
  2562  0331  1D03               	skipz
  2563  0332  2B35               	goto	u264_25
  2564  0333  30FF               	movlw	255
  2565  0334  0252               	subwf	___flmul@temp,w
  2566  0335                     u264_25:
  2567  0335  1C03               	skipc
  2568  0336  2B38               	goto	u264_21
  2569  0337  2B39               	goto	u264_20
  2570  0338                     u264_21:
  2571  0338  2B44               	goto	i1l1821
  2572  0339                     u264_20:
  2573  0339                     i1l1819:
  2574  0339  307F               	movlw	127
  2575  033A  1283               	bcf	3,5	;RP0=0, select bank0
  2576  033B  1303               	bcf	3,6	;RP1=0, select bank0
  2577  033C  00D1               	movwf	___flmul@prod+3
  2578  033D  3080               	movlw	128
  2579  033E  00D0               	movwf	___flmul@prod+2
  2580  033F  3000               	movlw	0
  2581  0340  00CF               	movwf	___flmul@prod+1
  2582  0341  3000               	movlw	0
  2583  0342  00CE               	movwf	___flmul@prod
  2584  0343  2B79               	goto	i1l564
  2585  0344                     i1l1821:
  2586  0344  1283               	bcf	3,5	;RP0=0, select bank0
  2587  0345  1303               	bcf	3,6	;RP1=0, select bank0
  2588  0346  0853               	movf	___flmul@temp+1,w
  2589  0347  3A80               	xorlw	128
  2590  0348  00FF               	movwf	btemp+1
  2591  0349  3080               	movlw	128
  2592  034A  027F               	subwf	btemp+1,w
  2593  034B  1D03               	skipz
  2594  034C  2B4F               	goto	u265_25
  2595  034D  3001               	movlw	1
  2596  034E  0252               	subwf	___flmul@temp,w
  2597  034F                     u265_25:
  2598  034F  1803               	skipnc
  2599  0350  2B52               	goto	u265_21
  2600  0351  2B53               	goto	u265_20
  2601  0352                     u265_21:
  2602  0352  2B5F               	goto	i1l1827
  2603  0353                     u265_20:
  2604  0353                     i1l1823:
  2605  0353  3000               	movlw	0
  2606  0354  1283               	bcf	3,5	;RP0=0, select bank0
  2607  0355  1303               	bcf	3,6	;RP1=0, select bank0
  2608  0356  00D1               	movwf	___flmul@prod+3
  2609  0357  3000               	movlw	0
  2610  0358  00D0               	movwf	___flmul@prod+2
  2611  0359  3000               	movlw	0
  2612  035A  00CF               	movwf	___flmul@prod+1
  2613  035B  3000               	movlw	0
  2614  035C  00CE               	movwf	___flmul@prod
  2615  035D                     i1l1825:
  2616  035D  01C7               	clrf	___flmul@sign
  2617  035E  2B79               	goto	i1l564
  2618  035F                     i1l1827:
  2619  035F  1283               	bcf	3,5	;RP0=0, select bank0
  2620  0360  1303               	bcf	3,6	;RP1=0, select bank0
  2621  0361  0852               	movf	___flmul@temp,w
  2622  0362  00C2               	movwf	??___flmul
  2623  0363  0842               	movf	??___flmul,w
  2624  0364  00CD               	movwf	___flmul@bexp
  2625  0365  30FF               	movlw	255
  2626  0366  05CE               	andwf	___flmul@prod,f
  2627  0367  30FF               	movlw	255
  2628  0368  05CF               	andwf	___flmul@prod+1,f
  2629  0369  307F               	movlw	127
  2630  036A  05D0               	andwf	___flmul@prod+2,f
  2631  036B  3000               	movlw	0
  2632  036C  05D1               	andwf	___flmul@prod+3,f
  2633  036D                     i1l1829:
  2634  036D  1C4D               	btfss	___flmul@bexp,0
  2635  036E  2B70               	goto	u266_21
  2636  036F  2B71               	goto	u266_20
  2637  0370                     u266_21:
  2638  0370  2B72               	goto	i1l1833
  2639  0371                     u266_20:
  2640  0371                     i1l1831:
  2641  0371  17D0               	bsf	___flmul@prod+2,7
  2642  0372                     i1l1833:
  2643  0372  084D               	movf	___flmul@bexp,w
  2644  0373  00C2               	movwf	??___flmul
  2645  0374  1003               	clrc
  2646  0375  0C42               	rrf	??___flmul,w
  2647  0376  00C3               	movwf	??___flmul+1
  2648  0377  0843               	movf	??___flmul+1,w
  2649  0378  00D1               	movwf	___flmul@prod+3
  2650  0379                     i1l564:
  2651  0379  0847               	movf	___flmul@sign,w
  2652  037A  00C2               	movwf	??___flmul
  2653  037B  0842               	movf	??___flmul,w
  2654  037C  04D1               	iorwf	___flmul@prod+3,f
  2655  037D                     i1l1835:
  2656  037D  0851               	movf	___flmul@prod+3,w
  2657  037E  00BD               	movwf	?___flmul+3
  2658  037F  0850               	movf	___flmul@prod+2,w
  2659  0380  00BC               	movwf	?___flmul+2
  2660  0381  084F               	movf	___flmul@prod+1,w
  2661  0382  00BB               	movwf	?___flmul+1
  2662  0383  084E               	movf	___flmul@prod,w
  2663  0384  00BA               	movwf	?___flmul
  2664  0385                     i1l552:
  2665  0385  0008               	return
  2666  0386                     __end_of___flmul:
  2667                           
  2668                           	psect	text7
  2669  0D35                     __ptext7:	
  2670 ;; *************** function __Umul8_16 *****************
  2671 ;; Defined at:
  2672 ;;		line 4 in file "C:\Program Files\Microchip\xc8\v2.35\pic\sources\c90\common\Umul8_16.c"
  2673 ;; Parameters:    Size  Location     Type
  2674 ;;  multiplier      1    wreg     unsigned char 
  2675 ;;  multiplicand    1    0[COMMON] unsigned char 
  2676 ;; Auto vars:     Size  Location     Type
  2677 ;;  multiplier      1    8[COMMON] unsigned char 
  2678 ;;  word_mpld       2    6[COMMON] unsigned int 
  2679 ;;  product         2    4[COMMON] unsigned int 
  2680 ;; Return value:  Size  Location     Type
  2681 ;;                  2    0[COMMON] unsigned int 
  2682 ;; Registers used:
  2683 ;;		wreg, status,2, status,0
  2684 ;; Tracked objects:
  2685 ;;		On entry : 0/0
  2686 ;;		On exit  : 0/0
  2687 ;;		Unchanged: 0/0
  2688 ;; Data sizes:     COMMON   BANK0   BANK1   BANK3   BANK2
  2689 ;;      Params:         2       0       0       0       0
  2690 ;;      Locals:         5       0       0       0       0
  2691 ;;      Temps:          2       0       0       0       0
  2692 ;;      Totals:         9       0       0       0       0
  2693 ;;Total ram usage:        9 bytes
  2694 ;; Hardware stack levels used: 1
  2695 ;; This function calls:
  2696 ;;		Nothing
  2697 ;; This function is called by:
  2698 ;;		___flmul
  2699 ;; This function uses a non-reentrant model
  2700 ;;
  2701                           
  2702  0D35                     __Umul8_16:	
  2703                           ;psect for function __Umul8_16
  2704                           
  2705                           
  2706                           ;incstack = 0
  2707                           ; Regs used in __Umul8_16: [wreg+status,2+status,0]
  2708                           ;__Umul8_16@multiplier stored from wreg
  2709  0D35  00F8               	movwf	__Umul8_16@multiplier
  2710  0D36                     i1l1313:
  2711  0D36  01F4               	clrf	__Umul8_16@product
  2712  0D37  01F5               	clrf	__Umul8_16@product+1
  2713  0D38                     i1l1315:
  2714  0D38  0870               	movf	__Umul8_16@multiplicand,w
  2715  0D39  00F2               	movwf	??__Umul8_16
  2716  0D3A  01F3               	clrf	??__Umul8_16+1
  2717  0D3B  0872               	movf	??__Umul8_16,w
  2718  0D3C  00F6               	movwf	__Umul8_16@word_mpld
  2719  0D3D  0873               	movf	??__Umul8_16+1,w
  2720  0D3E  00F7               	movwf	__Umul8_16@word_mpld+1
  2721  0D3F                     i1l1317:
  2722  0D3F  1C78               	btfss	__Umul8_16@multiplier,0
  2723  0D40  2D42               	goto	u142_21
  2724  0D41  2D43               	goto	u142_20
  2725  0D42                     u142_21:
  2726  0D42  2D49               	goto	i1l571
  2727  0D43                     u142_20:
  2728  0D43                     i1l1319:
  2729  0D43  0876               	movf	__Umul8_16@word_mpld,w
  2730  0D44  07F4               	addwf	__Umul8_16@product,f
  2731  0D45  1803               	skipnc
  2732  0D46  0AF5               	incf	__Umul8_16@product+1,f
  2733  0D47  0877               	movf	__Umul8_16@word_mpld+1,w
  2734  0D48  07F5               	addwf	__Umul8_16@product+1,f
  2735  0D49                     i1l571:
  2736  0D49  3001               	movlw	1
  2737  0D4A                     u143_25:
  2738  0D4A  1003               	clrc
  2739  0D4B  0DF6               	rlf	__Umul8_16@word_mpld,f
  2740  0D4C  0DF7               	rlf	__Umul8_16@word_mpld+1,f
  2741  0D4D  3EFF               	addlw	-1
  2742  0D4E  1D03               	skipz
  2743  0D4F  2D4A               	goto	u143_25
  2744  0D50  1003               	clrc
  2745  0D51  0CF8               	rrf	__Umul8_16@multiplier,f
  2746  0D52                     i1l1321:
  2747  0D52  0878               	movf	__Umul8_16@multiplier,w
  2748  0D53  1D03               	btfss	3,2
  2749  0D54  2D56               	goto	u144_21
  2750  0D55  2D57               	goto	u144_20
  2751  0D56                     u144_21:
  2752  0D56  2D3F               	goto	i1l1317
  2753  0D57                     u144_20:
  2754  0D57                     i1l1323:
  2755  0D57  0875               	movf	__Umul8_16@product+1,w
  2756  0D58  00F1               	movwf	?__Umul8_16+1
  2757  0D59  0874               	movf	__Umul8_16@product,w
  2758  0D5A  00F0               	movwf	?__Umul8_16
  2759  0D5B                     i1l573:
  2760  0D5B  0008               	return
  2761  0D5C                     __end_of__Umul8_16:
  2762                           
  2763                           	psect	text8
  2764  060E                     __ptext8:	
  2765 ;; *************** function ___fldiv *****************
  2766 ;; Defined at:
  2767 ;;		line 8 in file "C:\Program Files\Microchip\xc8\v2.35\pic\sources\c90\common\sprcdiv.c"
  2768 ;; Parameters:    Size  Location     Type
  2769 ;;  a               4    0[BANK0 ] unsigned int 
  2770 ;;  b               4    4[BANK0 ] unsigned int 
  2771 ;; Auto vars:     Size  Location     Type
  2772 ;;  grs             4   20[BANK0 ] unsigned long 
  2773 ;;  rem             4   13[BANK0 ] unsigned long 
  2774 ;;  new_exp         2   18[BANK0 ] int 
  2775 ;;  aexp            1   25[BANK0 ] unsigned char 
  2776 ;;  bexp            1   24[BANK0 ] unsigned char 
  2777 ;;  sign            1   17[BANK0 ] unsigned char 
  2778 ;; Return value:  Size  Location     Type
  2779 ;;                  4    0[BANK0 ] unsigned char 
  2780 ;; Registers used:
  2781 ;;		wreg, status,2, status,0, btemp+1
  2782 ;; Tracked objects:
  2783 ;;		On entry : 0/0
  2784 ;;		On exit  : 0/0
  2785 ;;		Unchanged: 0/0
  2786 ;; Data sizes:     COMMON   BANK0   BANK1   BANK3   BANK2
  2787 ;;      Params:         0       8       0       0       0
  2788 ;;      Locals:         0      13       0       0       0
  2789 ;;      Temps:          0       5       0       0       0
  2790 ;;      Totals:         0      26       0       0       0
  2791 ;;Total ram usage:       26 bytes
  2792 ;; Hardware stack levels used: 1
  2793 ;; This function calls:
  2794 ;;		Nothing
  2795 ;; This function is called by:
  2796 ;;		_map
  2797 ;; This function uses a non-reentrant model
  2798 ;;
  2799                           
  2800  060E                     ___fldiv:	
  2801                           ;psect for function ___fldiv
  2802                           
  2803  060E                     i1l1557:	
  2804                           ;incstack = 0
  2805                           ; Regs used in ___fldiv: [wreg+status,2+status,0+btemp+1]
  2806                           
  2807  060E  1283               	bcf	3,5	;RP0=0, select bank0
  2808  060F  1303               	bcf	3,6	;RP1=0, select bank0
  2809  0610  0827               	movf	___fldiv@b+3,w
  2810  0611  3980               	andlw	128
  2811  0612  00A8               	movwf	??___fldiv
  2812  0613  0828               	movf	??___fldiv,w
  2813  0614  00B1               	movwf	___fldiv@sign
  2814  0615                     i1l1559:
  2815  0615  0827               	movf	___fldiv@b+3,w
  2816  0616  00A8               	movwf	??___fldiv
  2817  0617  0728               	addwf	??___fldiv,w
  2818  0618  00A9               	movwf	??___fldiv+1
  2819  0619  0829               	movf	??___fldiv+1,w
  2820  061A  00B8               	movwf	___fldiv@bexp
  2821  061B                     i1l1561:
  2822  061B  1FA6               	btfss	___fldiv@b+2,7
  2823  061C  2E1E               	goto	u201_21
  2824  061D  2E1F               	goto	u201_20
  2825  061E                     u201_21:
  2826  061E  2E20               	goto	i1l1565
  2827  061F                     u201_20:
  2828  061F                     i1l1563:
  2829  061F  1438               	bsf	___fldiv@bexp,0
  2830  0620                     i1l1565:
  2831  0620  0838               	movf	___fldiv@bexp,w
  2832  0621  1903               	btfsc	3,2
  2833  0622  2E24               	goto	u202_21
  2834  0623  2E25               	goto	u202_20
  2835  0624                     u202_21:
  2836  0624  2E35               	goto	i1l1575
  2837  0625                     u202_20:
  2838  0625                     i1l1567:
  2839  0625  0A38               	incf	___fldiv@bexp,w
  2840  0626  1D03               	btfss	3,2
  2841  0627  2E29               	goto	u203_21
  2842  0628  2E2A               	goto	u203_20
  2843  0629                     u203_21:
  2844  0629  2E32               	goto	i1l1571
  2845  062A                     u203_20:
  2846  062A                     i1l1569:
  2847  062A  3000               	movlw	0
  2848  062B  00A7               	movwf	___fldiv@b+3
  2849  062C  3000               	movlw	0
  2850  062D  00A6               	movwf	___fldiv@b+2
  2851  062E  3000               	movlw	0
  2852  062F  00A5               	movwf	___fldiv@b+1
  2853  0630  3000               	movlw	0
  2854  0631  00A4               	movwf	___fldiv@b
  2855  0632                     i1l1571:
  2856  0632  17A6               	bsf	___fldiv@b+2,7
  2857  0633                     i1l1573:
  2858  0633  01A7               	clrf	___fldiv@b+3
  2859  0634  2E3D               	goto	i1l1577
  2860  0635                     i1l1575:
  2861  0635  3000               	movlw	0
  2862  0636  00A7               	movwf	___fldiv@b+3
  2863  0637  3000               	movlw	0
  2864  0638  00A6               	movwf	___fldiv@b+2
  2865  0639  3000               	movlw	0
  2866  063A  00A5               	movwf	___fldiv@b+1
  2867  063B  3000               	movlw	0
  2868  063C  00A4               	movwf	___fldiv@b
  2869  063D                     i1l1577:
  2870  063D  0823               	movf	___fldiv@a+3,w
  2871  063E  3980               	andlw	128
  2872  063F  00A8               	movwf	??___fldiv
  2873  0640  0828               	movf	??___fldiv,w
  2874  0641  06B1               	xorwf	___fldiv@sign,f
  2875  0642                     i1l1579:
  2876  0642  0823               	movf	___fldiv@a+3,w
  2877  0643  00A8               	movwf	??___fldiv
  2878  0644  0728               	addwf	??___fldiv,w
  2879  0645  00A9               	movwf	??___fldiv+1
  2880  0646  0829               	movf	??___fldiv+1,w
  2881  0647  00B9               	movwf	___fldiv@aexp
  2882  0648                     i1l1581:
  2883  0648  1FA2               	btfss	___fldiv@a+2,7
  2884  0649  2E4B               	goto	u204_21
  2885  064A  2E4C               	goto	u204_20
  2886  064B                     u204_21:
  2887  064B  2E4D               	goto	i1l1585
  2888  064C                     u204_20:
  2889  064C                     i1l1583:
  2890  064C  1439               	bsf	___fldiv@aexp,0
  2891  064D                     i1l1585:
  2892  064D  0839               	movf	___fldiv@aexp,w
  2893  064E  1903               	btfsc	3,2
  2894  064F  2E51               	goto	u205_21
  2895  0650  2E52               	goto	u205_20
  2896  0651                     u205_21:
  2897  0651  2E62               	goto	i1l1595
  2898  0652                     u205_20:
  2899  0652                     i1l1587:
  2900  0652  0A39               	incf	___fldiv@aexp,w
  2901  0653  1D03               	btfss	3,2
  2902  0654  2E56               	goto	u206_21
  2903  0655  2E57               	goto	u206_20
  2904  0656                     u206_21:
  2905  0656  2E5F               	goto	i1l1591
  2906  0657                     u206_20:
  2907  0657                     i1l1589:
  2908  0657  3000               	movlw	0
  2909  0658  00A3               	movwf	___fldiv@a+3
  2910  0659  3000               	movlw	0
  2911  065A  00A2               	movwf	___fldiv@a+2
  2912  065B  3000               	movlw	0
  2913  065C  00A1               	movwf	___fldiv@a+1
  2914  065D  3000               	movlw	0
  2915  065E  00A0               	movwf	___fldiv@a
  2916  065F                     i1l1591:
  2917  065F  17A2               	bsf	___fldiv@a+2,7
  2918  0660                     i1l1593:
  2919  0660  01A3               	clrf	___fldiv@a+3
  2920  0661  2E6A               	goto	i1l512
  2921  0662                     i1l1595:
  2922  0662  3000               	movlw	0
  2923  0663  00A3               	movwf	___fldiv@a+3
  2924  0664  3000               	movlw	0
  2925  0665  00A2               	movwf	___fldiv@a+2
  2926  0666  3000               	movlw	0
  2927  0667  00A1               	movwf	___fldiv@a+1
  2928  0668  3000               	movlw	0
  2929  0669  00A0               	movwf	___fldiv@a
  2930  066A                     i1l512:
  2931  066A  0823               	movf	___fldiv@a+3,w
  2932  066B  0422               	iorwf	___fldiv@a+2,w
  2933  066C  0421               	iorwf	___fldiv@a+1,w
  2934  066D  0420               	iorwf	___fldiv@a,w
  2935  066E  1D03               	skipz
  2936  066F  2E71               	goto	u207_21
  2937  0670  2E72               	goto	u207_20
  2938  0671                     u207_21:
  2939  0671  2E8B               	goto	i1l1605
  2940  0672                     u207_20:
  2941  0672                     i1l1597:
  2942  0672  3000               	movlw	0
  2943  0673  00A7               	movwf	___fldiv@b+3
  2944  0674  3000               	movlw	0
  2945  0675  00A6               	movwf	___fldiv@b+2
  2946  0676  3000               	movlw	0
  2947  0677  00A5               	movwf	___fldiv@b+1
  2948  0678  3000               	movlw	0
  2949  0679  00A4               	movwf	___fldiv@b
  2950  067A  3080               	movlw	128
  2951  067B  04A6               	iorwf	___fldiv@b+2,f
  2952  067C  307F               	movlw	127
  2953  067D  04A7               	iorwf	___fldiv@b+3,f
  2954  067E                     i1l1599:
  2955  067E  0831               	movf	___fldiv@sign,w
  2956  067F  00A8               	movwf	??___fldiv
  2957  0680  0828               	movf	??___fldiv,w
  2958  0681  04A7               	iorwf	___fldiv@b+3,f
  2959  0682                     i1l1601:
  2960  0682  0827               	movf	___fldiv@b+3,w
  2961  0683  00A3               	movwf	?___fldiv+3
  2962  0684  0826               	movf	___fldiv@b+2,w
  2963  0685  00A2               	movwf	?___fldiv+2
  2964  0686  0825               	movf	___fldiv@b+1,w
  2965  0687  00A1               	movwf	?___fldiv+1
  2966  0688  0824               	movf	___fldiv@b,w
  2967  0689  00A0               	movwf	?___fldiv
  2968  068A  2FEA               	goto	i1l514
  2969  068B                     i1l1605:
  2970  068B  0838               	movf	___fldiv@bexp,w
  2971  068C  1D03               	btfss	3,2
  2972  068D  2E8F               	goto	u208_21
  2973  068E  2E90               	goto	u208_20
  2974  068F                     u208_21:
  2975  068F  2E99               	goto	i1l1611
  2976  0690                     u208_20:
  2977  0690                     i1l1607:
  2978  0690  3000               	movlw	0
  2979  0691  00A3               	movwf	?___fldiv+3
  2980  0692  3000               	movlw	0
  2981  0693  00A2               	movwf	?___fldiv+2
  2982  0694  3000               	movlw	0
  2983  0695  00A1               	movwf	?___fldiv+1
  2984  0696  3000               	movlw	0
  2985  0697  00A0               	movwf	?___fldiv
  2986  0698  2FEA               	goto	i1l514
  2987  0699                     i1l1611:
  2988  0699  0838               	movf	___fldiv@bexp,w
  2989  069A  00A8               	movwf	??___fldiv
  2990  069B  01A9               	clrf	??___fldiv+1
  2991  069C  0829               	movf	??___fldiv+1,w
  2992  069D  00AB               	movwf	??___fldiv+3
  2993  069E  0839               	movf	___fldiv@aexp,w
  2994  069F  0228               	subwf	??___fldiv,w
  2995  06A0  00AA               	movwf	??___fldiv+2
  2996  06A1  1C03               	skipc
  2997  06A2  03AB               	decf	??___fldiv+3,f
  2998  06A3  082A               	movf	??___fldiv+2,w
  2999  06A4  3E7F               	addlw	127
  3000  06A5  00B2               	movwf	___fldiv@new_exp
  3001  06A6  082B               	movf	??___fldiv+3,w
  3002  06A7  1803               	skipnc
  3003  06A8  3E01               	addlw	1
  3004  06A9  3E00               	addlw	0
  3005  06AA  00B3               	movwf	___fldiv@new_exp+1
  3006  06AB                     i1l1613:
  3007  06AB  0827               	movf	___fldiv@b+3,w
  3008  06AC  00B0               	movwf	___fldiv@rem+3
  3009  06AD  0826               	movf	___fldiv@b+2,w
  3010  06AE  00AF               	movwf	___fldiv@rem+2
  3011  06AF  0825               	movf	___fldiv@b+1,w
  3012  06B0  00AE               	movwf	___fldiv@rem+1
  3013  06B1  0824               	movf	___fldiv@b,w
  3014  06B2  00AD               	movwf	___fldiv@rem
  3015  06B3                     i1l1615:
  3016  06B3  3000               	movlw	0
  3017  06B4  00A7               	movwf	___fldiv@b+3
  3018  06B5  3000               	movlw	0
  3019  06B6  00A6               	movwf	___fldiv@b+2
  3020  06B7  3000               	movlw	0
  3021  06B8  00A5               	movwf	___fldiv@b+1
  3022  06B9  3000               	movlw	0
  3023  06BA  00A4               	movwf	___fldiv@b
  3024  06BB                     i1l1617:
  3025  06BB  3000               	movlw	0
  3026  06BC  00B7               	movwf	___fldiv@grs+3
  3027  06BD  3000               	movlw	0
  3028  06BE  00B6               	movwf	___fldiv@grs+2
  3029  06BF  3000               	movlw	0
  3030  06C0  00B5               	movwf	___fldiv@grs+1
  3031  06C1  3000               	movlw	0
  3032  06C2  00B4               	movwf	___fldiv@grs
  3033  06C3                     i1l1619:
  3034  06C3  01B9               	clrf	___fldiv@aexp
  3035  06C4  2F0F               	goto	i1l1639
  3036  06C5                     i1l1621:
  3037  06C5  0839               	movf	___fldiv@aexp,w
  3038  06C6  1903               	btfsc	3,2
  3039  06C7  2EC9               	goto	u209_21
  3040  06C8  2ECA               	goto	u209_20
  3041  06C9                     u209_21:
  3042  06C9  2EEA               	goto	i1l1631
  3043  06CA                     u209_20:
  3044  06CA                     i1l1623:
  3045  06CA  3001               	movlw	1
  3046  06CB  00A8               	movwf	??___fldiv
  3047  06CC                     u210_25:
  3048  06CC  1003               	clrc
  3049  06CD  0DAD               	rlf	___fldiv@rem,f
  3050  06CE  0DAE               	rlf	___fldiv@rem+1,f
  3051  06CF  0DAF               	rlf	___fldiv@rem+2,f
  3052  06D0  0DB0               	rlf	___fldiv@rem+3,f
  3053  06D1  0BA8               	decfsz	??___fldiv,f
  3054  06D2  2ECC               	goto	u210_25
  3055  06D3  3001               	movlw	1
  3056  06D4  00A8               	movwf	??___fldiv
  3057  06D5                     u211_25:
  3058  06D5  1003               	clrc
  3059  06D6  0DA4               	rlf	___fldiv@b,f
  3060  06D7  0DA5               	rlf	___fldiv@b+1,f
  3061  06D8  0DA6               	rlf	___fldiv@b+2,f
  3062  06D9  0DA7               	rlf	___fldiv@b+3,f
  3063  06DA  0BA8               	decfsz	??___fldiv,f
  3064  06DB  2ED5               	goto	u211_25
  3065  06DC                     i1l1625:
  3066  06DC  1FB7               	btfss	___fldiv@grs+3,7
  3067  06DD  2EDF               	goto	u212_21
  3068  06DE  2EE0               	goto	u212_20
  3069  06DF                     u212_21:
  3070  06DF  2EE1               	goto	i1l1629
  3071  06E0                     u212_20:
  3072  06E0                     i1l1627:
  3073  06E0  1424               	bsf	___fldiv@b,0
  3074  06E1                     i1l1629:
  3075  06E1  3001               	movlw	1
  3076  06E2  00A8               	movwf	??___fldiv
  3077  06E3                     u213_25:
  3078  06E3  1003               	clrc
  3079  06E4  0DB4               	rlf	___fldiv@grs,f
  3080  06E5  0DB5               	rlf	___fldiv@grs+1,f
  3081  06E6  0DB6               	rlf	___fldiv@grs+2,f
  3082  06E7  0DB7               	rlf	___fldiv@grs+3,f
  3083  06E8  0BA8               	decfsz	??___fldiv,f
  3084  06E9  2EE3               	goto	u213_25
  3085  06EA                     i1l1631:
  3086  06EA  0823               	movf	___fldiv@a+3,w
  3087  06EB  0230               	subwf	___fldiv@rem+3,w
  3088  06EC  1D03               	skipz
  3089  06ED  2EF8               	goto	u214_25
  3090  06EE  0822               	movf	___fldiv@a+2,w
  3091  06EF  022F               	subwf	___fldiv@rem+2,w
  3092  06F0  1D03               	skipz
  3093  06F1  2EF8               	goto	u214_25
  3094  06F2  0821               	movf	___fldiv@a+1,w
  3095  06F3  022E               	subwf	___fldiv@rem+1,w
  3096  06F4  1D03               	skipz
  3097  06F5  2EF8               	goto	u214_25
  3098  06F6  0820               	movf	___fldiv@a,w
  3099  06F7  022D               	subwf	___fldiv@rem,w
  3100  06F8                     u214_25:
  3101  06F8  1C03               	skipc
  3102  06F9  2EFB               	goto	u214_21
  3103  06FA  2EFC               	goto	u214_20
  3104  06FB                     u214_21:
  3105  06FB  2F0B               	goto	i1l1637
  3106  06FC                     u214_20:
  3107  06FC                     i1l1633:
  3108  06FC  1737               	bsf	___fldiv@grs+3,6
  3109  06FD                     i1l1635:
  3110  06FD  0820               	movf	___fldiv@a,w
  3111  06FE  02AD               	subwf	___fldiv@rem,f
  3112  06FF  0821               	movf	___fldiv@a+1,w
  3113  0700  1C03               	skipc
  3114  0701  0F21               	incfsz	___fldiv@a+1,w
  3115  0702  02AE               	subwf	___fldiv@rem+1,f
  3116  0703  0822               	movf	___fldiv@a+2,w
  3117  0704  1C03               	skipc
  3118  0705  0F22               	incfsz	___fldiv@a+2,w
  3119  0706  02AF               	subwf	___fldiv@rem+2,f
  3120  0707  0823               	movf	___fldiv@a+3,w
  3121  0708  1C03               	skipc
  3122  0709  0F23               	incfsz	___fldiv@a+3,w
  3123  070A  02B0               	subwf	___fldiv@rem+3,f
  3124  070B                     i1l1637:
  3125  070B  3001               	movlw	1
  3126  070C  00A8               	movwf	??___fldiv
  3127  070D  0828               	movf	??___fldiv,w
  3128  070E  07B9               	addwf	___fldiv@aexp,f
  3129  070F                     i1l1639:
  3130  070F  301A               	movlw	26
  3131  0710  0239               	subwf	___fldiv@aexp,w
  3132  0711  1C03               	skipc
  3133  0712  2F14               	goto	u215_21
  3134  0713  2F15               	goto	u215_20
  3135  0714                     u215_21:
  3136  0714  2EC5               	goto	i1l1621
  3137  0715                     u215_20:
  3138  0715                     i1l1641:
  3139  0715  0830               	movf	___fldiv@rem+3,w
  3140  0716  042F               	iorwf	___fldiv@rem+2,w
  3141  0717  042E               	iorwf	___fldiv@rem+1,w
  3142  0718  042D               	iorwf	___fldiv@rem,w
  3143  0719  1903               	skipnz
  3144  071A  2F1C               	goto	u216_21
  3145  071B  2F1D               	goto	u216_20
  3146  071C                     u216_21:
  3147  071C  2F3C               	goto	i1l1655
  3148  071D                     u216_20:
  3149  071D                     i1l1643:
  3150  071D  1434               	bsf	___fldiv@grs,0
  3151  071E  2F3C               	goto	i1l1655
  3152  071F                     i1l1645:
  3153  071F  3001               	movlw	1
  3154  0720  00A8               	movwf	??___fldiv
  3155  0721                     u217_25:
  3156  0721  1003               	clrc
  3157  0722  0DA4               	rlf	___fldiv@b,f
  3158  0723  0DA5               	rlf	___fldiv@b+1,f
  3159  0724  0DA6               	rlf	___fldiv@b+2,f
  3160  0725  0DA7               	rlf	___fldiv@b+3,f
  3161  0726  0BA8               	decfsz	??___fldiv,f
  3162  0727  2F21               	goto	u217_25
  3163  0728                     i1l1647:
  3164  0728  1FB7               	btfss	___fldiv@grs+3,7
  3165  0729  2F2B               	goto	u218_21
  3166  072A  2F2C               	goto	u218_20
  3167  072B                     u218_21:
  3168  072B  2F2D               	goto	i1l1651
  3169  072C                     u218_20:
  3170  072C                     i1l1649:
  3171  072C  1424               	bsf	___fldiv@b,0
  3172  072D                     i1l1651:
  3173  072D  3001               	movlw	1
  3174  072E  00A8               	movwf	??___fldiv
  3175  072F                     u219_25:
  3176  072F  1003               	clrc
  3177  0730  0DB4               	rlf	___fldiv@grs,f
  3178  0731  0DB5               	rlf	___fldiv@grs+1,f
  3179  0732  0DB6               	rlf	___fldiv@grs+2,f
  3180  0733  0DB7               	rlf	___fldiv@grs+3,f
  3181  0734  0BA8               	decfsz	??___fldiv,f
  3182  0735  2F2F               	goto	u219_25
  3183  0736                     i1l1653:
  3184  0736  30FF               	movlw	255
  3185  0737  07B2               	addwf	___fldiv@new_exp,f
  3186  0738  1803               	skipnc
  3187  0739  0AB3               	incf	___fldiv@new_exp+1,f
  3188  073A  30FF               	movlw	255
  3189  073B  07B3               	addwf	___fldiv@new_exp+1,f
  3190  073C                     i1l1655:
  3191  073C  1FA6               	btfss	___fldiv@b+2,7
  3192  073D  2F3F               	goto	u220_21
  3193  073E  2F40               	goto	u220_20
  3194  073F                     u220_21:
  3195  073F  2F1F               	goto	i1l1645
  3196  0740                     u220_20:
  3197  0740                     i1l1657:
  3198  0740  01B9               	clrf	___fldiv@aexp
  3199  0741                     i1l1659:
  3200  0741  1FB7               	btfss	___fldiv@grs+3,7
  3201  0742  2F44               	goto	u221_21
  3202  0743  2F45               	goto	u221_20
  3203  0744                     u221_21:
  3204  0744  2F61               	goto	i1l1667
  3205  0745                     u221_20:
  3206  0745                     i1l1661:
  3207  0745  30FF               	movlw	255
  3208  0746  0534               	andwf	___fldiv@grs,w
  3209  0747  00A8               	movwf	??___fldiv
  3210  0748  30FF               	movlw	255
  3211  0749  0535               	andwf	___fldiv@grs+1,w
  3212  074A  00A9               	movwf	??___fldiv+1
  3213  074B  30FF               	movlw	255
  3214  074C  0536               	andwf	___fldiv@grs+2,w
  3215  074D  00AA               	movwf	??___fldiv+2
  3216  074E  307F               	movlw	127
  3217  074F  0537               	andwf	___fldiv@grs+3,w
  3218  0750  00AB               	movwf	??___fldiv+3
  3219  0751  082B               	movf	??___fldiv+3,w
  3220  0752  042A               	iorwf	??___fldiv+2,w
  3221  0753  0429               	iorwf	??___fldiv+1,w
  3222  0754  0428               	iorwf	??___fldiv,w
  3223  0755  1903               	skipnz
  3224  0756  2F58               	goto	u222_21
  3225  0757  2F59               	goto	u222_20
  3226  0758                     u222_21:
  3227  0758  2F5C               	goto	i1l528
  3228  0759                     u222_20:
  3229  0759                     i1l1663:
  3230  0759  01B9               	clrf	___fldiv@aexp
  3231  075A  0AB9               	incf	___fldiv@aexp,f
  3232  075B  2F61               	goto	i1l1667
  3233  075C                     i1l528:
  3234  075C  1C24               	btfss	___fldiv@b,0
  3235  075D  2F5F               	goto	u223_21
  3236  075E  2F60               	goto	u223_20
  3237  075F                     u223_21:
  3238  075F  2F61               	goto	i1l1667
  3239  0760                     u223_20:
  3240  0760  2F59               	goto	i1l1663
  3241  0761                     i1l1667:
  3242  0761  0839               	movf	___fldiv@aexp,w
  3243  0762  1903               	btfsc	3,2
  3244  0763  2F65               	goto	u224_21
  3245  0764  2F66               	goto	u224_20
  3246  0765                     u224_21:
  3247  0765  2F97               	goto	i1l1677
  3248  0766                     u224_20:
  3249  0766                     i1l1669:
  3250  0766  3001               	movlw	1
  3251  0767  07A4               	addwf	___fldiv@b,f
  3252  0768  3000               	movlw	0
  3253  0769  1803               	skipnc
  3254  076A  3001               	movlw	1
  3255  076B  07A5               	addwf	___fldiv@b+1,f
  3256  076C  3000               	movlw	0
  3257  076D  1803               	skipnc
  3258  076E  3001               	movlw	1
  3259  076F  07A6               	addwf	___fldiv@b+2,f
  3260  0770  3000               	movlw	0
  3261  0771  1803               	skipnc
  3262  0772  3001               	movlw	1
  3263  0773  07A7               	addwf	___fldiv@b+3,f
  3264  0774                     i1l1671:
  3265  0774  1C27               	btfss	___fldiv@b+3,0
  3266  0775  2F77               	goto	u225_21
  3267  0776  2F78               	goto	u225_20
  3268  0777                     u225_21:
  3269  0777  2F97               	goto	i1l1677
  3270  0778                     u225_20:
  3271  0778                     i1l1673:
  3272  0778  0824               	movf	___fldiv@b,w
  3273  0779  00A8               	movwf	??___fldiv
  3274  077A  0825               	movf	___fldiv@b+1,w
  3275  077B  00A9               	movwf	??___fldiv+1
  3276  077C  0826               	movf	___fldiv@b+2,w
  3277  077D  00AA               	movwf	??___fldiv+2
  3278  077E  0827               	movf	___fldiv@b+3,w
  3279  077F  00AB               	movwf	??___fldiv+3
  3280  0780  3001               	movlw	1
  3281  0781  00AC               	movwf	??___fldiv+4
  3282  0782                     u226_25:
  3283  0782  0D2B               	rlf	??___fldiv+3,w
  3284  0783  0CAB               	rrf	??___fldiv+3,f
  3285  0784  0CAA               	rrf	??___fldiv+2,f
  3286  0785  0CA9               	rrf	??___fldiv+1,f
  3287  0786  0CA8               	rrf	??___fldiv,f
  3288  0787                     u226_20:
  3289  0787  0BAC               	decfsz	??___fldiv+4,f
  3290  0788  2F82               	goto	u226_25
  3291  0789  082B               	movf	??___fldiv+3,w
  3292  078A  00A7               	movwf	___fldiv@b+3
  3293  078B  082A               	movf	??___fldiv+2,w
  3294  078C  00A6               	movwf	___fldiv@b+2
  3295  078D  0829               	movf	??___fldiv+1,w
  3296  078E  00A5               	movwf	___fldiv@b+1
  3297  078F  0828               	movf	??___fldiv,w
  3298  0790  00A4               	movwf	___fldiv@b
  3299  0791                     i1l1675:
  3300  0791  3001               	movlw	1
  3301  0792  07B2               	addwf	___fldiv@new_exp,f
  3302  0793  1803               	skipnc
  3303  0794  0AB3               	incf	___fldiv@new_exp+1,f
  3304  0795  3000               	movlw	0
  3305  0796  07B3               	addwf	___fldiv@new_exp+1,f
  3306  0797                     i1l1677:
  3307  0797  0833               	movf	___fldiv@new_exp+1,w
  3308  0798  3A80               	xorlw	128
  3309  0799  00FF               	movwf	btemp+1
  3310  079A  3080               	movlw	128
  3311  079B  027F               	subwf	btemp+1,w
  3312  079C  1D03               	skipz
  3313  079D  2FA0               	goto	u227_25
  3314  079E  30FF               	movlw	255
  3315  079F  0232               	subwf	___fldiv@new_exp,w
  3316  07A0                     u227_25:
  3317  07A0  1C03               	skipc
  3318  07A1  2FA3               	goto	u227_21
  3319  07A2  2FA4               	goto	u227_20
  3320  07A3                     u227_21:
  3321  07A3  2FB2               	goto	i1l1681
  3322  07A4                     u227_20:
  3323  07A4                     i1l1679:
  3324  07A4  30FF               	movlw	255
  3325  07A5  1283               	bcf	3,5	;RP0=0, select bank0
  3326  07A6  1303               	bcf	3,6	;RP1=0, select bank0
  3327  07A7  00B2               	movwf	___fldiv@new_exp
  3328  07A8  3000               	movlw	0
  3329  07A9  00B3               	movwf	___fldiv@new_exp+1
  3330  07AA  3000               	movlw	0
  3331  07AB  00A7               	movwf	___fldiv@b+3
  3332  07AC  3000               	movlw	0
  3333  07AD  00A6               	movwf	___fldiv@b+2
  3334  07AE  3000               	movlw	0
  3335  07AF  00A5               	movwf	___fldiv@b+1
  3336  07B0  3000               	movlw	0
  3337  07B1  00A4               	movwf	___fldiv@b
  3338  07B2                     i1l1681:
  3339  07B2  1283               	bcf	3,5	;RP0=0, select bank0
  3340  07B3  1303               	bcf	3,6	;RP1=0, select bank0
  3341  07B4  0833               	movf	___fldiv@new_exp+1,w
  3342  07B5  3A80               	xorlw	128
  3343  07B6  00FF               	movwf	btemp+1
  3344  07B7  3080               	movlw	128
  3345  07B8  027F               	subwf	btemp+1,w
  3346  07B9  1D03               	skipz
  3347  07BA  2FBD               	goto	u228_25
  3348  07BB  3001               	movlw	1
  3349  07BC  0232               	subwf	___fldiv@new_exp,w
  3350  07BD                     u228_25:
  3351  07BD  1803               	skipnc
  3352  07BE  2FC0               	goto	u228_21
  3353  07BF  2FC1               	goto	u228_20
  3354  07C0                     u228_21:
  3355  07C0  2FCE               	goto	i1l534
  3356  07C1                     u228_20:
  3357  07C1                     i1l1683:
  3358  07C1  1283               	bcf	3,5	;RP0=0, select bank0
  3359  07C2  1303               	bcf	3,6	;RP1=0, select bank0
  3360  07C3  01B2               	clrf	___fldiv@new_exp
  3361  07C4  01B3               	clrf	___fldiv@new_exp+1
  3362  07C5                     i1l1685:
  3363  07C5  3000               	movlw	0
  3364  07C6  00A7               	movwf	___fldiv@b+3
  3365  07C7  3000               	movlw	0
  3366  07C8  00A6               	movwf	___fldiv@b+2
  3367  07C9  3000               	movlw	0
  3368  07CA  00A5               	movwf	___fldiv@b+1
  3369  07CB  3000               	movlw	0
  3370  07CC  00A4               	movwf	___fldiv@b
  3371  07CD                     i1l1687:
  3372  07CD  01B1               	clrf	___fldiv@sign
  3373  07CE                     i1l534:
  3374  07CE  1283               	bcf	3,5	;RP0=0, select bank0
  3375  07CF  1303               	bcf	3,6	;RP1=0, select bank0
  3376  07D0  0832               	movf	___fldiv@new_exp,w
  3377  07D1  00A8               	movwf	??___fldiv
  3378  07D2  0828               	movf	??___fldiv,w
  3379  07D3  00B8               	movwf	___fldiv@bexp
  3380  07D4                     i1l1689:
  3381  07D4  1C38               	btfss	___fldiv@bexp,0
  3382  07D5  2FD7               	goto	u229_21
  3383  07D6  2FD8               	goto	u229_20
  3384  07D7                     u229_21:
  3385  07D7  2FDA               	goto	i1l1693
  3386  07D8                     u229_20:
  3387  07D8                     i1l1691:
  3388  07D8  17A6               	bsf	___fldiv@b+2,7
  3389  07D9  2FDE               	goto	i1l536
  3390  07DA                     i1l1693:
  3391  07DA  307F               	movlw	127
  3392  07DB  00A8               	movwf	??___fldiv
  3393  07DC  0828               	movf	??___fldiv,w
  3394  07DD  05A6               	andwf	___fldiv@b+2,f
  3395  07DE                     i1l536:
  3396  07DE  0838               	movf	___fldiv@bexp,w
  3397  07DF  00A8               	movwf	??___fldiv
  3398  07E0  1003               	clrc
  3399  07E1  0C28               	rrf	??___fldiv,w
  3400  07E2  00A9               	movwf	??___fldiv+1
  3401  07E3  0829               	movf	??___fldiv+1,w
  3402  07E4  00A7               	movwf	___fldiv@b+3
  3403  07E5  0831               	movf	___fldiv@sign,w
  3404  07E6  00A8               	movwf	??___fldiv
  3405  07E7  0828               	movf	??___fldiv,w
  3406  07E8  04A7               	iorwf	___fldiv@b+3,f
  3407  07E9  2E82               	goto	i1l1601
  3408  07EA                     i1l514:
  3409  07EA  0008               	return
  3410  07EB                     __end_of___fldiv:
  3411                           
  3412                           	psect	text9
  3413  0386                     __ptext9:	
  3414 ;; *************** function ___fladd *****************
  3415 ;; Defined at:
  3416 ;;		line 10 in file "C:\Program Files\Microchip\xc8\v2.35\pic\sources\c90\common\sprcadd.c"
  3417 ;; Parameters:    Size  Location     Type
  3418 ;;  b               4   52[BANK0 ] unsigned char 
  3419 ;;  a               4   56[BANK0 ] unsigned char 
  3420 ;; Auto vars:     Size  Location     Type
  3421 ;;  grs             1   71[BANK0 ] unsigned char 
  3422 ;;  bexp            1   70[BANK0 ] unsigned char 
  3423 ;;  aexp            1   69[BANK0 ] unsigned char 
  3424 ;;  signs           1   68[BANK0 ] unsigned char 
  3425 ;; Return value:  Size  Location     Type
  3426 ;;                  4   52[BANK0 ] unsigned char 
  3427 ;; Registers used:
  3428 ;;		wreg, status,2, status,0, btemp+1
  3429 ;; Tracked objects:
  3430 ;;		On entry : 0/0
  3431 ;;		On exit  : 0/0
  3432 ;;		Unchanged: 0/0
  3433 ;; Data sizes:     COMMON   BANK0   BANK1   BANK3   BANK2
  3434 ;;      Params:         0       8       0       0       0
  3435 ;;      Locals:         0       4       0       0       0
  3436 ;;      Temps:          0       8       0       0       0
  3437 ;;      Totals:         0      20       0       0       0
  3438 ;;Total ram usage:       20 bytes
  3439 ;; Hardware stack levels used: 1
  3440 ;; This function calls:
  3441 ;;		Nothing
  3442 ;; This function is called by:
  3443 ;;		_map
  3444 ;; This function uses a non-reentrant model
  3445 ;;
  3446                           
  3447  0386                     ___fladd:	
  3448                           ;psect for function ___fladd
  3449                           
  3450  0386                     i1l1363:	
  3451                           ;incstack = 0
  3452                           ; Regs used in ___fladd: [wreg+status,2+status,0+btemp+1]
  3453                           
  3454  0386  1283               	bcf	3,5	;RP0=0, select bank0
  3455  0387  1303               	bcf	3,6	;RP1=0, select bank0
  3456  0388  0857               	movf	___fladd@b+3,w
  3457  0389  3980               	andlw	128
  3458  038A  00DC               	movwf	??___fladd
  3459  038B  085C               	movf	??___fladd,w
  3460  038C  00E4               	movwf	___fladd@signs
  3461  038D                     i1l1365:
  3462  038D  0857               	movf	___fladd@b+3,w
  3463  038E  00DC               	movwf	??___fladd
  3464  038F  075C               	addwf	??___fladd,w
  3465  0390  00DD               	movwf	??___fladd+1
  3466  0391  085D               	movf	??___fladd+1,w
  3467  0392  00E6               	movwf	___fladd@bexp
  3468  0393                     i1l1367:
  3469  0393  1FD6               	btfss	___fladd@b+2,7
  3470  0394  2B96               	goto	u155_21
  3471  0395  2B97               	goto	u155_20
  3472  0396                     u155_21:
  3473  0396  2B98               	goto	i1l1371
  3474  0397                     u155_20:
  3475  0397                     i1l1369:
  3476  0397  1466               	bsf	___fladd@bexp,0
  3477  0398                     i1l1371:
  3478  0398  0866               	movf	___fladd@bexp,w
  3479  0399  1903               	btfsc	3,2
  3480  039A  2B9C               	goto	u156_21
  3481  039B  2B9D               	goto	u156_20
  3482  039C                     u156_21:
  3483  039C  2BAD               	goto	i1l1381
  3484  039D                     u156_20:
  3485  039D                     i1l1373:
  3486  039D  0A66               	incf	___fladd@bexp,w
  3487  039E  1D03               	btfss	3,2
  3488  039F  2BA1               	goto	u157_21
  3489  03A0  2BA2               	goto	u157_20
  3490  03A1                     u157_21:
  3491  03A1  2BAA               	goto	i1l1377
  3492  03A2                     u157_20:
  3493  03A2                     i1l1375:
  3494  03A2  3000               	movlw	0
  3495  03A3  00D7               	movwf	___fladd@b+3
  3496  03A4  3000               	movlw	0
  3497  03A5  00D6               	movwf	___fladd@b+2
  3498  03A6  3000               	movlw	0
  3499  03A7  00D5               	movwf	___fladd@b+1
  3500  03A8  3000               	movlw	0
  3501  03A9  00D4               	movwf	___fladd@b
  3502  03AA                     i1l1377:
  3503  03AA  17D6               	bsf	___fladd@b+2,7
  3504  03AB                     i1l1379:
  3505  03AB  01D7               	clrf	___fladd@b+3
  3506  03AC  2BB5               	goto	i1l1383
  3507  03AD                     i1l1381:
  3508  03AD  3000               	movlw	0
  3509  03AE  00D7               	movwf	___fladd@b+3
  3510  03AF  3000               	movlw	0
  3511  03B0  00D6               	movwf	___fladd@b+2
  3512  03B1  3000               	movlw	0
  3513  03B2  00D5               	movwf	___fladd@b+1
  3514  03B3  3000               	movlw	0
  3515  03B4  00D4               	movwf	___fladd@b
  3516  03B5                     i1l1383:
  3517  03B5  085B               	movf	___fladd@a+3,w
  3518  03B6  3980               	andlw	128
  3519  03B7  00DC               	movwf	??___fladd
  3520  03B8  085C               	movf	??___fladd,w
  3521  03B9  00E5               	movwf	___fladd@aexp
  3522  03BA                     i1l1385:
  3523  03BA  0865               	movf	___fladd@aexp,w
  3524  03BB  0664               	xorwf	___fladd@signs,w
  3525  03BC  1903               	skipnz
  3526  03BD  2BBF               	goto	u158_21
  3527  03BE  2BC0               	goto	u158_20
  3528  03BF                     u158_21:
  3529  03BF  2BC1               	goto	i1l1389
  3530  03C0                     u158_20:
  3531  03C0                     i1l1387:
  3532  03C0  1764               	bsf	___fladd@signs,6
  3533  03C1                     i1l1389:
  3534  03C1  085B               	movf	___fladd@a+3,w
  3535  03C2  00DC               	movwf	??___fladd
  3536  03C3  075C               	addwf	??___fladd,w
  3537  03C4  00DD               	movwf	??___fladd+1
  3538  03C5  085D               	movf	??___fladd+1,w
  3539  03C6  00E5               	movwf	___fladd@aexp
  3540  03C7                     i1l1391:
  3541  03C7  1FDA               	btfss	___fladd@a+2,7
  3542  03C8  2BCA               	goto	u159_21
  3543  03C9  2BCB               	goto	u159_20
  3544  03CA                     u159_21:
  3545  03CA  2BCC               	goto	i1l1395
  3546  03CB                     u159_20:
  3547  03CB                     i1l1393:
  3548  03CB  1465               	bsf	___fladd@aexp,0
  3549  03CC                     i1l1395:
  3550  03CC  0865               	movf	___fladd@aexp,w
  3551  03CD  1903               	btfsc	3,2
  3552  03CE  2BD0               	goto	u160_21
  3553  03CF  2BD1               	goto	u160_20
  3554  03D0                     u160_21:
  3555  03D0  2BE1               	goto	i1l1405
  3556  03D1                     u160_20:
  3557  03D1                     i1l1397:
  3558  03D1  0A65               	incf	___fladd@aexp,w
  3559  03D2  1D03               	btfss	3,2
  3560  03D3  2BD5               	goto	u161_21
  3561  03D4  2BD6               	goto	u161_20
  3562  03D5                     u161_21:
  3563  03D5  2BDE               	goto	i1l1401
  3564  03D6                     u161_20:
  3565  03D6                     i1l1399:
  3566  03D6  3000               	movlw	0
  3567  03D7  00DB               	movwf	___fladd@a+3
  3568  03D8  3000               	movlw	0
  3569  03D9  00DA               	movwf	___fladd@a+2
  3570  03DA  3000               	movlw	0
  3571  03DB  00D9               	movwf	___fladd@a+1
  3572  03DC  3000               	movlw	0
  3573  03DD  00D8               	movwf	___fladd@a
  3574  03DE                     i1l1401:
  3575  03DE  17DA               	bsf	___fladd@a+2,7
  3576  03DF                     i1l1403:
  3577  03DF  01DB               	clrf	___fladd@a+3
  3578  03E0  2BE9               	goto	i1l456
  3579  03E1                     i1l1405:
  3580  03E1  3000               	movlw	0
  3581  03E2  00DB               	movwf	___fladd@a+3
  3582  03E3  3000               	movlw	0
  3583  03E4  00DA               	movwf	___fladd@a+2
  3584  03E5  3000               	movlw	0
  3585  03E6  00D9               	movwf	___fladd@a+1
  3586  03E7  3000               	movlw	0
  3587  03E8  00D8               	movwf	___fladd@a
  3588  03E9                     i1l456:
  3589  03E9  0866               	movf	___fladd@bexp,w
  3590  03EA  0265               	subwf	___fladd@aexp,w
  3591  03EB  1803               	skipnc
  3592  03EC  2BEE               	goto	u162_21
  3593  03ED  2BEF               	goto	u162_20
  3594  03EE                     u162_21:
  3595  03EE  2C33               	goto	i1l1441
  3596  03EF                     u162_20:
  3597  03EF                     i1l1407:
  3598  03EF  1F64               	btfss	___fladd@signs,6
  3599  03F0  2BF2               	goto	u163_21
  3600  03F1  2BF3               	goto	u163_20
  3601  03F2                     u163_21:
  3602  03F2  2BF7               	goto	i1l1411
  3603  03F3                     u163_20:
  3604  03F3                     i1l1409:
  3605  03F3  3080               	movlw	128
  3606  03F4  00DC               	movwf	??___fladd
  3607  03F5  085C               	movf	??___fladd,w
  3608  03F6  06E4               	xorwf	___fladd@signs,f
  3609  03F7                     i1l1411:
  3610  03F7  0866               	movf	___fladd@bexp,w
  3611  03F8  00DC               	movwf	??___fladd
  3612  03F9  085C               	movf	??___fladd,w
  3613  03FA  00E7               	movwf	___fladd@grs
  3614  03FB                     i1l1413:
  3615  03FB  0865               	movf	___fladd@aexp,w
  3616  03FC  00DC               	movwf	??___fladd
  3617  03FD  085C               	movf	??___fladd,w
  3618  03FE  00E6               	movwf	___fladd@bexp
  3619  03FF                     i1l1415:
  3620  03FF  0867               	movf	___fladd@grs,w
  3621  0400  00DC               	movwf	??___fladd
  3622  0401  085C               	movf	??___fladd,w
  3623  0402  00E5               	movwf	___fladd@aexp
  3624  0403                     i1l1417:
  3625  0403  0854               	movf	___fladd@b,w
  3626  0404  00DC               	movwf	??___fladd
  3627  0405  085C               	movf	??___fladd,w
  3628  0406  00E7               	movwf	___fladd@grs
  3629  0407                     i1l1419:
  3630  0407  0858               	movf	___fladd@a,w
  3631  0408  00DC               	movwf	??___fladd
  3632  0409  085C               	movf	??___fladd,w
  3633  040A  00D4               	movwf	___fladd@b
  3634  040B                     i1l1421:
  3635  040B  0867               	movf	___fladd@grs,w
  3636  040C  00DC               	movwf	??___fladd
  3637  040D  085C               	movf	??___fladd,w
  3638  040E  00D8               	movwf	___fladd@a
  3639  040F                     i1l1423:
  3640  040F  0855               	movf	___fladd@b+1,w
  3641  0410  00DC               	movwf	??___fladd
  3642  0411  085C               	movf	??___fladd,w
  3643  0412  00E7               	movwf	___fladd@grs
  3644  0413                     i1l1425:
  3645  0413  0859               	movf	___fladd@a+1,w
  3646  0414  00DC               	movwf	??___fladd
  3647  0415  085C               	movf	??___fladd,w
  3648  0416  00D5               	movwf	___fladd@b+1
  3649  0417                     i1l1427:
  3650  0417  0867               	movf	___fladd@grs,w
  3651  0418  00DC               	movwf	??___fladd
  3652  0419  085C               	movf	??___fladd,w
  3653  041A  00D9               	movwf	___fladd@a+1
  3654  041B                     i1l1429:
  3655  041B  0856               	movf	___fladd@b+2,w
  3656  041C  00DC               	movwf	??___fladd
  3657  041D  085C               	movf	??___fladd,w
  3658  041E  00E7               	movwf	___fladd@grs
  3659  041F                     i1l1431:
  3660  041F  085A               	movf	___fladd@a+2,w
  3661  0420  00DC               	movwf	??___fladd
  3662  0421  085C               	movf	??___fladd,w
  3663  0422  00D6               	movwf	___fladd@b+2
  3664  0423                     i1l1433:
  3665  0423  0867               	movf	___fladd@grs,w
  3666  0424  00DC               	movwf	??___fladd
  3667  0425  085C               	movf	??___fladd,w
  3668  0426  00DA               	movwf	___fladd@a+2
  3669  0427                     i1l1435:
  3670  0427  0857               	movf	___fladd@b+3,w
  3671  0428  00DC               	movwf	??___fladd
  3672  0429  085C               	movf	??___fladd,w
  3673  042A  00E7               	movwf	___fladd@grs
  3674  042B                     i1l1437:
  3675  042B  085B               	movf	___fladd@a+3,w
  3676  042C  00DC               	movwf	??___fladd
  3677  042D  085C               	movf	??___fladd,w
  3678  042E  00D7               	movwf	___fladd@b+3
  3679  042F                     i1l1439:
  3680  042F  0867               	movf	___fladd@grs,w
  3681  0430  00DC               	movwf	??___fladd
  3682  0431  085C               	movf	??___fladd,w
  3683  0432  00DB               	movwf	___fladd@a+3
  3684  0433                     i1l1441:
  3685  0433  01E7               	clrf	___fladd@grs
  3686  0434                     i1l1443:
  3687  0434  0865               	movf	___fladd@aexp,w
  3688  0435  00DC               	movwf	??___fladd
  3689  0436  01DD               	clrf	??___fladd+1
  3690  0437  085D               	movf	??___fladd+1,w
  3691  0438  00DF               	movwf	??___fladd+3
  3692  0439  0866               	movf	___fladd@bexp,w
  3693  043A  025C               	subwf	??___fladd,w
  3694  043B  00DE               	movwf	??___fladd+2
  3695  043C  1C03               	skipc
  3696  043D  03DF               	decf	??___fladd+3,f
  3697  043E  085F               	movf	??___fladd+3,w
  3698  043F  3A80               	xorlw	128
  3699  0440  00FF               	movwf	btemp+1
  3700  0441  3080               	movlw	128
  3701  0442  027F               	subwf	btemp+1,w
  3702  0443  1D03               	skipz
  3703  0444  2C47               	goto	u164_25
  3704  0445  301A               	movlw	26
  3705  0446  025E               	subwf	??___fladd+2,w
  3706  0447                     u164_25:
  3707  0447  1C03               	skipc
  3708  0448  2C4A               	goto	u164_21
  3709  0449  2C4B               	goto	u164_20
  3710  044A                     u164_21:
  3711  044A  2C88               	goto	i1l1459
  3712  044B                     u164_20:
  3713  044B                     i1l1445:
  3714  044B  1283               	bcf	3,5	;RP0=0, select bank0
  3715  044C  1303               	bcf	3,6	;RP1=0, select bank0
  3716  044D  0857               	movf	___fladd@b+3,w
  3717  044E  0456               	iorwf	___fladd@b+2,w
  3718  044F  0455               	iorwf	___fladd@b+1,w
  3719  0450  0454               	iorwf	___fladd@b,w
  3720  0451  1D03               	skipz
  3721  0452  2C54               	goto	u165_21
  3722  0453  2C56               	goto	u165_20
  3723  0454                     u165_21:
  3724  0454  3001               	movlw	1
  3725  0455  2C57               	goto	u166_20
  3726  0456                     u165_20:
  3727  0456  3000               	movlw	0
  3728  0457                     u166_20:
  3729  0457  00DC               	movwf	??___fladd
  3730  0458  085C               	movf	??___fladd,w
  3731  0459  00E7               	movwf	___fladd@grs
  3732  045A  3000               	movlw	0
  3733  045B  00D7               	movwf	___fladd@b+3
  3734  045C  3000               	movlw	0
  3735  045D  00D6               	movwf	___fladd@b+2
  3736  045E  3000               	movlw	0
  3737  045F  00D5               	movwf	___fladd@b+1
  3738  0460  3000               	movlw	0
  3739  0461  00D4               	movwf	___fladd@b
  3740  0462  0865               	movf	___fladd@aexp,w
  3741  0463  00DC               	movwf	??___fladd
  3742  0464  085C               	movf	??___fladd,w
  3743  0465  00E6               	movwf	___fladd@bexp
  3744  0466  2C90               	goto	i1l460
  3745  0467                     i1l462:
  3746  0467  1C67               	btfss	___fladd@grs,0
  3747  0468  2C6A               	goto	u167_21
  3748  0469  2C6B               	goto	u167_20
  3749  046A                     u167_21:
  3750  046A  2C74               	goto	i1l1449
  3751  046B                     u167_20:
  3752  046B                     i1l1447:
  3753  046B  0867               	movf	___fladd@grs,w
  3754  046C  00DC               	movwf	??___fladd
  3755  046D  1003               	clrc
  3756  046E  0C5C               	rrf	??___fladd,w
  3757  046F  3801               	iorlw	1
  3758  0470  00DD               	movwf	??___fladd+1
  3759  0471  085D               	movf	??___fladd+1,w
  3760  0472  00E7               	movwf	___fladd@grs
  3761  0473  2C76               	goto	i1l1451
  3762  0474                     i1l1449:
  3763  0474  1003               	clrc
  3764  0475  0CE7               	rrf	___fladd@grs,f
  3765  0476                     i1l1451:
  3766  0476  1C54               	btfss	___fladd@b,0
  3767  0477  2C79               	goto	u168_21
  3768  0478  2C7A               	goto	u168_20
  3769  0479                     u168_21:
  3770  0479  2C7B               	goto	i1l1455
  3771  047A                     u168_20:
  3772  047A                     i1l1453:
  3773  047A  17E7               	bsf	___fladd@grs,7
  3774  047B                     i1l1455:
  3775  047B  3001               	movlw	1
  3776  047C  00DC               	movwf	??___fladd
  3777  047D                     u169_25:
  3778  047D  0D57               	rlf	___fladd@b+3,w
  3779  047E  0CD7               	rrf	___fladd@b+3,f
  3780  047F  0CD6               	rrf	___fladd@b+2,f
  3781  0480  0CD5               	rrf	___fladd@b+1,f
  3782  0481  0CD4               	rrf	___fladd@b,f
  3783  0482  0BDC               	decfsz	??___fladd& (0+127),f
  3784  0483  2C7D               	goto	u169_25
  3785  0484                     i1l1457:
  3786  0484  3001               	movlw	1
  3787  0485  00DC               	movwf	??___fladd
  3788  0486  085C               	movf	??___fladd,w
  3789  0487  07E6               	addwf	___fladd@bexp,f
  3790  0488                     i1l1459:
  3791  0488  1283               	bcf	3,5	;RP0=0, select bank0
  3792  0489  1303               	bcf	3,6	;RP1=0, select bank0
  3793  048A  0865               	movf	___fladd@aexp,w
  3794  048B  0266               	subwf	___fladd@bexp,w
  3795  048C  1C03               	skipc
  3796  048D  2C8F               	goto	u170_21
  3797  048E  2C90               	goto	u170_20
  3798  048F                     u170_21:
  3799  048F  2C67               	goto	i1l462
  3800  0490                     u170_20:
  3801  0490                     i1l460:
  3802  0490  1B64               	btfsc	___fladd@signs,6
  3803  0491  2C93               	goto	u171_21
  3804  0492  2C94               	goto	u171_20
  3805  0493                     u171_21:
  3806  0493  2CDF               	goto	i1l1485
  3807  0494                     u171_20:
  3808  0494                     i1l1461:
  3809  0494  0866               	movf	___fladd@bexp,w
  3810  0495  1D03               	btfss	3,2
  3811  0496  2C98               	goto	u172_21
  3812  0497  2C99               	goto	u172_20
  3813  0498                     u172_21:
  3814  0498  2CA2               	goto	i1l1467
  3815  0499                     u172_20:
  3816  0499                     i1l1463:
  3817  0499  3000               	movlw	0
  3818  049A  00D7               	movwf	?___fladd+3
  3819  049B  3000               	movlw	0
  3820  049C  00D6               	movwf	?___fladd+2
  3821  049D  3000               	movlw	0
  3822  049E  00D5               	movwf	?___fladd+1
  3823  049F  3000               	movlw	0
  3824  04A0  00D4               	movwf	?___fladd
  3825  04A1  2E0D               	goto	i1l469
  3826  04A2                     i1l1467:
  3827  04A2  0858               	movf	___fladd@a,w
  3828  04A3  07D4               	addwf	___fladd@b,f
  3829  04A4  0859               	movf	___fladd@a+1,w
  3830  04A5  1103               	clrz
  3831  04A6  1803               	skipnc
  3832  04A7  3E01               	addlw	1
  3833  04A8  1903               	skipnz
  3834  04A9  2CAB               	goto	u173_21
  3835  04AA  07D5               	addwf	___fladd@b+1,f
  3836  04AB                     u173_21:
  3837  04AB  085A               	movf	___fladd@a+2,w
  3838  04AC  1103               	clrz
  3839  04AD  1803               	skipnc
  3840  04AE  3E01               	addlw	1
  3841  04AF  1903               	skipnz
  3842  04B0  2CB2               	goto	u173_22
  3843  04B1  07D6               	addwf	___fladd@b+2,f
  3844  04B2                     u173_22:
  3845  04B2  085B               	movf	___fladd@a+3,w
  3846  04B3  1103               	clrz
  3847  04B4  1803               	skipnc
  3848  04B5  3E01               	addlw	1
  3849  04B6  1903               	skipnz
  3850  04B7  2CB9               	goto	u173_23
  3851  04B8  07D7               	addwf	___fladd@b+3,f
  3852  04B9                     u173_23:
  3853  04B9                     i1l1469:
  3854  04B9  1C57               	btfss	___fladd@b+3,0
  3855  04BA  2CBC               	goto	u174_21
  3856  04BB  2CBD               	goto	u174_20
  3857  04BC                     u174_21:
  3858  04BC  2D93               	goto	i1l1519
  3859  04BD                     u174_20:
  3860  04BD                     i1l1471:
  3861  04BD  1C67               	btfss	___fladd@grs,0
  3862  04BE  2CC0               	goto	u175_21
  3863  04BF  2CC1               	goto	u175_20
  3864  04C0                     u175_21:
  3865  04C0  2CCA               	goto	i1l1475
  3866  04C1                     u175_20:
  3867  04C1                     i1l1473:
  3868  04C1  0867               	movf	___fladd@grs,w
  3869  04C2  00DC               	movwf	??___fladd
  3870  04C3  1003               	clrc
  3871  04C4  0C5C               	rrf	??___fladd,w
  3872  04C5  3801               	iorlw	1
  3873  04C6  00DD               	movwf	??___fladd+1
  3874  04C7  085D               	movf	??___fladd+1,w
  3875  04C8  00E7               	movwf	___fladd@grs
  3876  04C9  2CCC               	goto	i1l1477
  3877  04CA                     i1l1475:
  3878  04CA  1003               	clrc
  3879  04CB  0CE7               	rrf	___fladd@grs,f
  3880  04CC                     i1l1477:
  3881  04CC  1C54               	btfss	___fladd@b,0
  3882  04CD  2CCF               	goto	u176_21
  3883  04CE  2CD0               	goto	u176_20
  3884  04CF                     u176_21:
  3885  04CF  2CD1               	goto	i1l1481
  3886  04D0                     u176_20:
  3887  04D0                     i1l1479:
  3888  04D0  17E7               	bsf	___fladd@grs,7
  3889  04D1                     i1l1481:
  3890  04D1  3001               	movlw	1
  3891  04D2  00DC               	movwf	??___fladd
  3892  04D3                     u177_25:
  3893  04D3  0D57               	rlf	___fladd@b+3,w
  3894  04D4  0CD7               	rrf	___fladd@b+3,f
  3895  04D5  0CD6               	rrf	___fladd@b+2,f
  3896  04D6  0CD5               	rrf	___fladd@b+1,f
  3897  04D7  0CD4               	rrf	___fladd@b,f
  3898  04D8  0BDC               	decfsz	??___fladd& (0+127),f
  3899  04D9  2CD3               	goto	u177_25
  3900  04DA                     i1l1483:
  3901  04DA  3001               	movlw	1
  3902  04DB  00DC               	movwf	??___fladd
  3903  04DC  085C               	movf	??___fladd,w
  3904  04DD  07E6               	addwf	___fladd@bexp,f
  3905  04DE  2D93               	goto	i1l1519
  3906  04DF                     i1l1485:
  3907  04DF  0857               	movf	___fladd@b+3,w
  3908  04E0  3A80               	xorlw	128
  3909  04E1  00FF               	movwf	btemp+1
  3910  04E2  085B               	movf	___fladd@a+3,w
  3911  04E3  3A80               	xorlw	128
  3912  04E4  027F               	subwf	btemp+1,w
  3913  04E5  1D03               	skipz
  3914  04E6  2CF1               	goto	u178_23
  3915  04E7  085A               	movf	___fladd@a+2,w
  3916  04E8  0256               	subwf	___fladd@b+2,w
  3917  04E9  1D03               	skipz
  3918  04EA  2CF1               	goto	u178_23
  3919  04EB  0859               	movf	___fladd@a+1,w
  3920  04EC  0255               	subwf	___fladd@b+1,w
  3921  04ED  1D03               	skipz
  3922  04EE  2CF1               	goto	u178_23
  3923  04EF  0858               	movf	___fladd@a,w
  3924  04F0  0254               	subwf	___fladd@b,w
  3925  04F1                     u178_23:
  3926  04F1  1803               	skipnc
  3927  04F2  2CF4               	goto	u178_21
  3928  04F3  2CF5               	goto	u178_20
  3929  04F4                     u178_21:
  3930  04F4  2D4D               	goto	i1l1495
  3931  04F5                     u178_20:
  3932  04F5                     i1l1487:
  3933  04F5  30FF               	movlw	255
  3934  04F6  00DC               	movwf	??___fladd
  3935  04F7  30FF               	movlw	255
  3936  04F8  00DD               	movwf	??___fladd+1
  3937  04F9  30FF               	movlw	255
  3938  04FA  00DE               	movwf	??___fladd+2
  3939  04FB  30FF               	movlw	255
  3940  04FC  00DF               	movwf	??___fladd+3
  3941  04FD  0858               	movf	___fladd@a,w
  3942  04FE  00E0               	movwf	??___fladd+4
  3943  04FF  0859               	movf	___fladd@a+1,w
  3944  0500  00E1               	movwf	??___fladd+5
  3945  0501  085A               	movf	___fladd@a+2,w
  3946  0502  00E2               	movwf	??___fladd+6
  3947  0503  085B               	movf	___fladd@a+3,w
  3948  0504  00E3               	movwf	??___fladd+7
  3949  0505  0854               	movf	___fladd@b,w
  3950  0506  02E0               	subwf	??___fladd+4,f
  3951  0507  0855               	movf	___fladd@b+1,w
  3952  0508  1C03               	skipc
  3953  0509  0F55               	incfsz	___fladd@b+1,w
  3954  050A  2D0C               	goto	u179_21
  3955  050B  2D0D               	goto	u179_22
  3956  050C                     u179_21:
  3957  050C  02E1               	subwf	??___fladd+5,f
  3958  050D                     u179_22:
  3959  050D  0856               	movf	___fladd@b+2,w
  3960  050E  1C03               	skipc
  3961  050F  0F56               	incfsz	___fladd@b+2,w
  3962  0510  2D12               	goto	u179_23
  3963  0511  2D13               	goto	u179_24
  3964  0512                     u179_23:
  3965  0512  02E2               	subwf	??___fladd+6,f
  3966  0513                     u179_24:
  3967  0513  0857               	movf	___fladd@b+3,w
  3968  0514  1C03               	skipc
  3969  0515  0F57               	incfsz	___fladd@b+3,w
  3970  0516  2D18               	goto	u179_25
  3971  0517  2D19               	goto	u179_26
  3972  0518                     u179_25:
  3973  0518  02E3               	subwf	??___fladd+7,f
  3974  0519                     u179_26:
  3975  0519  0860               	movf	??___fladd+4,w
  3976  051A  07DC               	addwf	??___fladd,f
  3977  051B  0861               	movf	??___fladd+5,w
  3978  051C  1803               	skipnc
  3979  051D  0F61               	incfsz	??___fladd+5,w
  3980  051E  2D20               	goto	u180_20
  3981  051F  2D21               	goto	u180_21
  3982  0520                     u180_20:
  3983  0520  07DD               	addwf	??___fladd+1,f
  3984  0521                     u180_21:
  3985  0521  0862               	movf	??___fladd+6,w
  3986  0522  1803               	skipnc
  3987  0523  0F62               	incfsz	??___fladd+6,w
  3988  0524  2D26               	goto	u180_22
  3989  0525  2D27               	goto	u180_23
  3990  0526                     u180_22:
  3991  0526  07DE               	addwf	??___fladd+2,f
  3992  0527                     u180_23:
  3993  0527  0863               	movf	??___fladd+7,w
  3994  0528  1803               	skipnc
  3995  0529  0A63               	incf	??___fladd+7,w
  3996  052A  07DF               	addwf	??___fladd+3,f
  3997  052B  085F               	movf	??___fladd+3,w
  3998  052C  00D7               	movwf	___fladd@b+3
  3999  052D  085E               	movf	??___fladd+2,w
  4000  052E  00D6               	movwf	___fladd@b+2
  4001  052F  085D               	movf	??___fladd+1,w
  4002  0530  00D5               	movwf	___fladd@b+1
  4003  0531  085C               	movf	??___fladd,w
  4004  0532  00D4               	movwf	___fladd@b
  4005  0533                     i1l1489:
  4006  0533  3080               	movlw	128
  4007  0534  00DC               	movwf	??___fladd
  4008  0535  085C               	movf	??___fladd,w
  4009  0536  06E4               	xorwf	___fladd@signs,f
  4010  0537  09E7               	comf	___fladd@grs,f
  4011  0538  0AE7               	incf	___fladd@grs,f
  4012  0539                     i1l1491:
  4013  0539  0867               	movf	___fladd@grs,w
  4014  053A  1D03               	btfss	3,2
  4015  053B  2D3D               	goto	u181_21
  4016  053C  2D3E               	goto	u181_20
  4017  053D                     u181_21:
  4018  053D  2D5B               	goto	i1l477
  4019  053E                     u181_20:
  4020  053E                     i1l1493:
  4021  053E  3001               	movlw	1
  4022  053F  07D4               	addwf	___fladd@b,f
  4023  0540  3000               	movlw	0
  4024  0541  1803               	skipnc
  4025  0542  3001               	movlw	1
  4026  0543  07D5               	addwf	___fladd@b+1,f
  4027  0544  3000               	movlw	0
  4028  0545  1803               	skipnc
  4029  0546  3001               	movlw	1
  4030  0547  07D6               	addwf	___fladd@b+2,f
  4031  0548  3000               	movlw	0
  4032  0549  1803               	skipnc
  4033  054A  3001               	movlw	1
  4034  054B  07D7               	addwf	___fladd@b+3,f
  4035  054C  2D5B               	goto	i1l477
  4036  054D                     i1l1495:
  4037  054D  0858               	movf	___fladd@a,w
  4038  054E  02D4               	subwf	___fladd@b,f
  4039  054F  0859               	movf	___fladd@a+1,w
  4040  0550  1C03               	skipc
  4041  0551  0F59               	incfsz	___fladd@a+1,w
  4042  0552  02D5               	subwf	___fladd@b+1,f
  4043  0553  085A               	movf	___fladd@a+2,w
  4044  0554  1C03               	skipc
  4045  0555  0F5A               	incfsz	___fladd@a+2,w
  4046  0556  02D6               	subwf	___fladd@b+2,f
  4047  0557  085B               	movf	___fladd@a+3,w
  4048  0558  1C03               	skipc
  4049  0559  0F5B               	incfsz	___fladd@a+3,w
  4050  055A  02D7               	subwf	___fladd@b+3,f
  4051  055B                     i1l477:
  4052  055B  0857               	movf	___fladd@b+3,w
  4053  055C  0456               	iorwf	___fladd@b+2,w
  4054  055D  0455               	iorwf	___fladd@b+1,w
  4055  055E  0454               	iorwf	___fladd@b,w
  4056  055F  1D03               	skipz
  4057  0560  2D62               	goto	u182_21
  4058  0561  2D63               	goto	u182_20
  4059  0562                     u182_21:
  4060  0562  2D8F               	goto	i1l1517
  4061  0563                     u182_20:
  4062  0563                     i1l1497:
  4063  0563  0867               	movf	___fladd@grs,w
  4064  0564  1D03               	btfss	3,2
  4065  0565  2D67               	goto	u183_21
  4066  0566  2D68               	goto	u183_20
  4067  0567                     u183_21:
  4068  0567  2D8F               	goto	i1l1517
  4069  0568                     u183_20:
  4070  0568                     i1l1499:
  4071  0568  3000               	movlw	0
  4072  0569  00D7               	movwf	?___fladd+3
  4073  056A  3000               	movlw	0
  4074  056B  00D6               	movwf	?___fladd+2
  4075  056C  3000               	movlw	0
  4076  056D  00D5               	movwf	?___fladd+1
  4077  056E  3000               	movlw	0
  4078  056F  00D4               	movwf	?___fladd
  4079  0570  2E0D               	goto	i1l469
  4080  0571                     i1l1503:
  4081  0571  3001               	movlw	1
  4082  0572  00DC               	movwf	??___fladd
  4083  0573                     u184_25:
  4084  0573  1003               	clrc
  4085  0574  0DD4               	rlf	___fladd@b,f
  4086  0575  0DD5               	rlf	___fladd@b+1,f
  4087  0576  0DD6               	rlf	___fladd@b+2,f
  4088  0577  0DD7               	rlf	___fladd@b+3,f
  4089  0578  0BDC               	decfsz	??___fladd,f
  4090  0579  2D73               	goto	u184_25
  4091  057A                     i1l1505:
  4092  057A  1FE7               	btfss	___fladd@grs,7
  4093  057B  2D7D               	goto	u185_21
  4094  057C  2D7E               	goto	u185_20
  4095  057D                     u185_21:
  4096  057D  2D7F               	goto	i1l481
  4097  057E                     u185_20:
  4098  057E                     i1l1507:
  4099  057E  1454               	bsf	___fladd@b,0
  4100  057F                     i1l481:
  4101  057F  1C67               	btfss	___fladd@grs,0
  4102  0580  2D82               	goto	u186_21
  4103  0581  2D83               	goto	u186_20
  4104  0582                     u186_21:
  4105  0582  2D86               	goto	i1l1511
  4106  0583                     u186_20:
  4107  0583                     i1l1509:
  4108  0583  1403               	setc
  4109  0584  0DE7               	rlf	___fladd@grs,f
  4110  0585  2D88               	goto	i1l1513
  4111  0586                     i1l1511:
  4112  0586  1003               	clrc
  4113  0587  0DE7               	rlf	___fladd@grs,f
  4114  0588                     i1l1513:
  4115  0588  0866               	movf	___fladd@bexp,w
  4116  0589  1903               	btfsc	3,2
  4117  058A  2D8C               	goto	u187_21
  4118  058B  2D8D               	goto	u187_20
  4119  058C                     u187_21:
  4120  058C  2D8F               	goto	i1l1517
  4121  058D                     u187_20:
  4122  058D                     i1l1515:
  4123  058D  3001               	movlw	1
  4124  058E  02E6               	subwf	___fladd@bexp,f
  4125  058F                     i1l1517:
  4126  058F  1FD6               	btfss	___fladd@b+2,7
  4127  0590  2D92               	goto	u188_21
  4128  0591  2D93               	goto	u188_20
  4129  0592                     u188_21:
  4130  0592  2D71               	goto	i1l1503
  4131  0593                     u188_20:
  4132  0593                     i1l1519:
  4133  0593  01E5               	clrf	___fladd@aexp
  4134  0594                     i1l1521:
  4135  0594  1FE7               	btfss	___fladd@grs,7
  4136  0595  2D97               	goto	u189_21
  4137  0596  2D98               	goto	u189_20
  4138  0597                     u189_21:
  4139  0597  2DA6               	goto	i1l1529
  4140  0598                     u189_20:
  4141  0598                     i1l1523:
  4142  0598  0867               	movf	___fladd@grs,w
  4143  0599  397F               	andlw	127
  4144  059A  1903               	btfsc	3,2
  4145  059B  2D9D               	goto	u190_21
  4146  059C  2D9E               	goto	u190_20
  4147  059D                     u190_21:
  4148  059D  2DA1               	goto	i1l487
  4149  059E                     u190_20:
  4150  059E                     i1l1525:
  4151  059E  01E5               	clrf	___fladd@aexp
  4152  059F  0AE5               	incf	___fladd@aexp,f
  4153  05A0  2DA6               	goto	i1l1529
  4154  05A1                     i1l487:
  4155  05A1  1C54               	btfss	___fladd@b,0
  4156  05A2  2DA4               	goto	u191_21
  4157  05A3  2DA5               	goto	u191_20
  4158  05A4                     u191_21:
  4159  05A4  2DA6               	goto	i1l1529
  4160  05A5                     u191_20:
  4161  05A5  2D9E               	goto	i1l1525
  4162  05A6                     i1l1529:
  4163  05A6  0865               	movf	___fladd@aexp,w
  4164  05A7  1903               	btfsc	3,2
  4165  05A8  2DAA               	goto	u192_21
  4166  05A9  2DAB               	goto	u192_20
  4167  05AA                     u192_21:
  4168  05AA  2DDF               	goto	i1l490
  4169  05AB                     u192_20:
  4170  05AB                     i1l1531:
  4171  05AB  3001               	movlw	1
  4172  05AC  07D4               	addwf	___fladd@b,f
  4173  05AD  3000               	movlw	0
  4174  05AE  1803               	skipnc
  4175  05AF  3001               	movlw	1
  4176  05B0  07D5               	addwf	___fladd@b+1,f
  4177  05B1  3000               	movlw	0
  4178  05B2  1803               	skipnc
  4179  05B3  3001               	movlw	1
  4180  05B4  07D6               	addwf	___fladd@b+2,f
  4181  05B5  3000               	movlw	0
  4182  05B6  1803               	skipnc
  4183  05B7  3001               	movlw	1
  4184  05B8  07D7               	addwf	___fladd@b+3,f
  4185  05B9                     i1l1533:
  4186  05B9  1C57               	btfss	___fladd@b+3,0
  4187  05BA  2DBC               	goto	u193_21
  4188  05BB  2DBD               	goto	u193_20
  4189  05BC                     u193_21:
  4190  05BC  2DDF               	goto	i1l490
  4191  05BD                     u193_20:
  4192  05BD                     i1l1535:
  4193  05BD  0854               	movf	___fladd@b,w
  4194  05BE  00DC               	movwf	??___fladd
  4195  05BF  0855               	movf	___fladd@b+1,w
  4196  05C0  00DD               	movwf	??___fladd+1
  4197  05C1  0856               	movf	___fladd@b+2,w
  4198  05C2  00DE               	movwf	??___fladd+2
  4199  05C3  0857               	movf	___fladd@b+3,w
  4200  05C4  00DF               	movwf	??___fladd+3
  4201  05C5  3001               	movlw	1
  4202  05C6  00E0               	movwf	??___fladd+4
  4203  05C7                     u194_25:
  4204  05C7  0D5F               	rlf	??___fladd+3,w
  4205  05C8  0CDF               	rrf	??___fladd+3,f
  4206  05C9  0CDE               	rrf	??___fladd+2,f
  4207  05CA  0CDD               	rrf	??___fladd+1,f
  4208  05CB  0CDC               	rrf	??___fladd,f
  4209  05CC                     u194_20:
  4210  05CC  0BE0               	decfsz	??___fladd+4,f
  4211  05CD  2DC7               	goto	u194_25
  4212  05CE  085F               	movf	??___fladd+3,w
  4213  05CF  00D7               	movwf	___fladd@b+3
  4214  05D0  085E               	movf	??___fladd+2,w
  4215  05D1  00D6               	movwf	___fladd@b+2
  4216  05D2  085D               	movf	??___fladd+1,w
  4217  05D3  00D5               	movwf	___fladd@b+1
  4218  05D4  085C               	movf	??___fladd,w
  4219  05D5  00D4               	movwf	___fladd@b
  4220  05D6  0A66               	incf	___fladd@bexp,w
  4221  05D7  1903               	btfsc	3,2
  4222  05D8  2DDA               	goto	u195_21
  4223  05D9  2DDB               	goto	u195_20
  4224  05DA                     u195_21:
  4225  05DA  2DDF               	goto	i1l490
  4226  05DB                     u195_20:
  4227  05DB                     i1l1537:
  4228  05DB  3001               	movlw	1
  4229  05DC  00DC               	movwf	??___fladd
  4230  05DD  085C               	movf	??___fladd,w
  4231  05DE  07E6               	addwf	___fladd@bexp,f
  4232  05DF                     i1l490:
  4233  05DF  0A66               	incf	___fladd@bexp,w
  4234  05E0  1903               	btfsc	3,2
  4235  05E1  2DE3               	goto	u196_21
  4236  05E2  2DE4               	goto	u196_20
  4237  05E3                     u196_21:
  4238  05E3  2DE9               	goto	i1l1541
  4239  05E4                     u196_20:
  4240  05E4                     i1l1539:
  4241  05E4  0866               	movf	___fladd@bexp,w
  4242  05E5  1D03               	btfss	3,2
  4243  05E6  2DE8               	goto	u197_21
  4244  05E7  2DE9               	goto	u197_20
  4245  05E8                     u197_21:
  4246  05E8  2DF7               	goto	i1l1547
  4247  05E9                     u197_20:
  4248  05E9                     i1l1541:
  4249  05E9  3000               	movlw	0
  4250  05EA  00D7               	movwf	___fladd@b+3
  4251  05EB  3000               	movlw	0
  4252  05EC  00D6               	movwf	___fladd@b+2
  4253  05ED  3000               	movlw	0
  4254  05EE  00D5               	movwf	___fladd@b+1
  4255  05EF  3000               	movlw	0
  4256  05F0  00D4               	movwf	___fladd@b
  4257  05F1                     i1l1543:
  4258  05F1  0866               	movf	___fladd@bexp,w
  4259  05F2  1D03               	btfss	3,2
  4260  05F3  2DF5               	goto	u198_21
  4261  05F4  2DF6               	goto	u198_20
  4262  05F5                     u198_21:
  4263  05F5  2DF7               	goto	i1l1547
  4264  05F6                     u198_20:
  4265  05F6                     i1l1545:
  4266  05F6  01E4               	clrf	___fladd@signs
  4267  05F7                     i1l1547:
  4268  05F7  1C66               	btfss	___fladd@bexp,0
  4269  05F8  2DFA               	goto	u199_21
  4270  05F9  2DFB               	goto	u199_20
  4271  05FA                     u199_21:
  4272  05FA  2DFD               	goto	i1l1551
  4273  05FB                     u199_20:
  4274  05FB                     i1l1549:
  4275  05FB  17D6               	bsf	___fladd@b+2,7
  4276  05FC  2E01               	goto	i1l498
  4277  05FD                     i1l1551:
  4278  05FD  307F               	movlw	127
  4279  05FE  00DC               	movwf	??___fladd
  4280  05FF  085C               	movf	??___fladd,w
  4281  0600  05D6               	andwf	___fladd@b+2,f
  4282  0601                     i1l498:
  4283  0601  0866               	movf	___fladd@bexp,w
  4284  0602  00DC               	movwf	??___fladd
  4285  0603  1003               	clrc
  4286  0604  0C5C               	rrf	??___fladd,w
  4287  0605  00DD               	movwf	??___fladd+1
  4288  0606  085D               	movf	??___fladd+1,w
  4289  0607  00D7               	movwf	___fladd@b+3
  4290  0608                     i1l1553:
  4291  0608  1FE4               	btfss	___fladd@signs,7
  4292  0609  2E0B               	goto	u200_21
  4293  060A  2E0C               	goto	u200_20
  4294  060B                     u200_21:
  4295  060B  2E0D               	goto	i1l499
  4296  060C                     u200_20:
  4297  060C                     i1l1555:
  4298  060C  17D7               	bsf	___fladd@b+3,7
  4299  060D                     i1l499:
  4300  060D                     i1l469:
  4301  060D  0008               	return
  4302  060E                     __end_of___fladd:
  4303  007E                     btemp	set	126	;btemp
  4304  007E                     wtemp0	set	126
  4305                           
  4306                           	psect	idloc
  4307                           
  4308                           ;Config register IDLOC0 @ 0x2000
  4309                           ;	unspecified, using default values
  4310  2000                     	org	8192
  4311  2000  3FFF               	dw	16383
  4312                           
  4313                           ;Config register IDLOC1 @ 0x2001
  4314                           ;	unspecified, using default values
  4315  2001                     	org	8193
  4316  2001  3FFF               	dw	16383
  4317                           
  4318                           ;Config register IDLOC2 @ 0x2002
  4319                           ;	unspecified, using default values
  4320  2002                     	org	8194
  4321  2002  3FFF               	dw	16383
  4322                           
  4323                           ;Config register IDLOC3 @ 0x2003
  4324                           ;	unspecified, using default values
  4325  2003                     	org	8195
  4326  2003  3FFF               	dw	16383
  4327                           
  4328                           	psect	config
  4329                           
  4330                           ;Config register CONFIG1 @ 0x2007
  4331                           ;	Oscillator Selection bits
  4332                           ;	FOSC = INTRC_NOCLKOUT, INTOSCIO oscillator: I/O function on RA6/OSC2/CLKOUT pin, I/O f
      +                          unction on RA7/OSC1/CLKIN
  4333                           ;	Watchdog Timer Enable bit
  4334                           ;	WDTE = OFF, WDT disabled and can be enabled by SWDTEN bit of the WDTCON register
  4335                           ;	Power-up Timer Enable bit
  4336                           ;	PWRTE = OFF, PWRT disabled
  4337                           ;	RE3/MCLR pin function select bit
  4338                           ;	MCLRE = OFF, RE3/MCLR pin function is digital input, MCLR internally tied to VDD
  4339                           ;	Code Protection bit
  4340                           ;	CP = OFF, Program memory code protection is disabled
  4341                           ;	Data Code Protection bit
  4342                           ;	CPD = OFF, Data memory code protection is disabled
  4343                           ;	Brown Out Reset Selection bits
  4344                           ;	BOREN = OFF, BOR disabled
  4345                           ;	Internal External Switchover bit
  4346                           ;	IESO = OFF, Internal/External Switchover mode is disabled
  4347                           ;	Fail-Safe Clock Monitor Enabled bit
  4348                           ;	FCMEN = OFF, Fail-Safe Clock Monitor is disabled
  4349                           ;	Low Voltage Programming Enable bit
  4350                           ;	LVP = OFF, RB3 pin has digital I/O, HV on MCLR must be used for programming
  4351                           ;	In-Circuit Debugger Mode bit
  4352                           ;	DEBUG = 0x1, unprogrammed default
  4353  2007                     	org	8199
  4354  2007  20D4               	dw	8404
  4355                           
  4356                           ;Config register CONFIG2 @ 0x2008
  4357                           ;	Brown-out Reset Selection bit
  4358                           ;	BOR4V = BOR40V, Brown-out Reset set to 4.0V
  4359                           ;	Flash Program Memory Self Write Enable bits
  4360                           ;	WRT = OFF, Write protection off
  4361  2008                     	org	8200
  4362  2008  3FFF               	dw	16383

Data Sizes:
    Strings     0
    Constant    0
    Data        1
    BSS         4
    Persistent  0
    Stack       0

Auto Spaces:
    Space          Size  Autos    Used
    COMMON           14     14      14
    BANK0            80     79      80
    BANK1            80     16      20
    BANK3            96      0       0
    BANK2            96      0       0

Pointer List with Targets:

    None.

Critical Paths under _main in COMMON

    None.

Critical Paths under _isr in COMMON

    _map->___xxtofl
    ___fltol->___xxtofl
    ___flmul->___xxtofl
    ___fldiv->___xxtofl
    ___fladd->___xxtofl

Critical Paths under _main in BANK0

    None.

Critical Paths under _isr in BANK0

    _isr->_map
    _map->___fltol
    ___fltol->___fladd
    ___flmul->___fldiv
    ___fladd->___flmul

Critical Paths under _main in BANK1

    None.

Critical Paths under _isr in BANK1

    _isr->_map
    _map->___fltol

Critical Paths under _main in BANK3

    None.

Critical Paths under _isr in BANK3

    None.

Critical Paths under _main in BANK2

    None.

Critical Paths under _isr in BANK2

    None.

Call Graph Tables:

 ---------------------------------------------------------------------------------
 (Depth) Function   	        Calls       Base Space   Used Autos Params    Refs
 ---------------------------------------------------------------------------------
 (0) _main                                                 0     0      0       0
                              _setup
 ---------------------------------------------------------------------------------
 (1) _setup                                                0     0      0       0
 ---------------------------------------------------------------------------------
 Estimated maximum stack depth 1
 ---------------------------------------------------------------------------------
 (Depth) Function   	        Calls       Base Space   Used Autos Params    Refs
 ---------------------------------------------------------------------------------
 (2) _isr                                                  5     5      0    7341
                                             11 BANK1      5     5      0
                                _map
 ---------------------------------------------------------------------------------
 (3) _map                                                  7     1      6    7341
                                             78 BANK0      1     1      0
                                              5 BANK1      6     0      6
                            ___fladd
                            ___fldiv
                            ___flmul
                            ___fltol
                           ___xxtofl
 ---------------------------------------------------------------------------------
 (4) ___xxtofl                                            14    10      4     626
                                              0 COMMON    14    10      4
 ---------------------------------------------------------------------------------
 (4) ___fltol                                             11     7      4     305
                                             72 BANK0      6     2      4
                                              0 BANK1      5     5      0
                            ___fladd (ARG)
                            ___fldiv (ARG)
                            ___flmul (ARG)
                           ___xxtofl (ARG)
 ---------------------------------------------------------------------------------
 (4) ___flmul                                             26    18      8    2417
                                             26 BANK0     26    18      8
                          __Umul8_16
                            ___fldiv (ARG)
                           ___xxtofl (ARG)
 ---------------------------------------------------------------------------------
 (5) __Umul8_16                                            9     7      2     799
                                              0 COMMON     9     7      2
 ---------------------------------------------------------------------------------
 (4) ___fldiv                                             26    18      8    1273
                                              0 BANK0     26    18      8
                           ___xxtofl (ARG)
 ---------------------------------------------------------------------------------
 (4) ___fladd                                             20    12      8    2262
                                             52 BANK0     20    12      8
                            ___fldiv (ARG)
                            ___flmul (ARG)
                           ___xxtofl (ARG)
 ---------------------------------------------------------------------------------
 Estimated maximum stack depth 5
 ---------------------------------------------------------------------------------

 Call Graph Graphs:

 _main (ROOT)
   _setup

 _isr (ROOT)
   _map
     ___fladd
       ___fldiv (ARG)
         ___xxtofl (ARG)
       ___flmul (ARG)
         __Umul8_16
         ___fldiv (ARG)
         ___xxtofl (ARG)
       ___xxtofl (ARG)
     ___fldiv
     ___flmul
     ___fltol
       ___fladd (ARG)
       ___fldiv (ARG)
       ___flmul (ARG)
       ___xxtofl (ARG)
     ___xxtofl

 Address spaces:
Name               Size   Autos  Total    Cost      Usage
BANK3               60      0       0       9        0.0%
BITBANK3            60      0       0       8        0.0%
SFR3                 0      0       0       4        0.0%
BITSFR3              0      0       0       4        0.0%
BANK2               60      0       0      11        0.0%
BITBANK2            60      0       0      10        0.0%
SFR2                 0      0       0       5        0.0%
BITSFR2              0      0       0       5        0.0%
BANK1               50     10      14       7       25.0%
BITBANK1            50      0       0       6        0.0%
SFR1                 0      0       0       2        0.0%
BITSFR1              0      0       0       2        0.0%
BANK0               50     4F      50       5      100.0%
BITBANK0            50      0       0       4        0.0%
SFR0                 0      0       0       1        0.0%
BITSFR0              0      0       0       1        0.0%
COMMON               E      E       E       1      100.0%
BITCOMMON            E      0       0       0        0.0%
CODE                 0      0       0       0        0.0%
DATA                 0      0      72      12        0.0%
ABS                  0      0      72       3        0.0%
NULL                 0      0       0       0        0.0%
STACK                0      0       0       2        0.0%
EEDATA             100      0       0       0        0.0%


Microchip Technology PIC Macro Assembler V2.35 build 20211206165544 
Symbol Table                                                                                   Fri May 13 23:21:57 2022

           ___fldiv@aexp 0039             ___fldiv@bexp 0038             ___fldiv@sign 0031  
            _SSPSTATbits 0094                       l71 0D88                       l73 0D8C  
                     l65 07F0                       l74 0DA7                       l66 07F0  
    __Umul8_16@word_mpld 0076                      _PR2 0092                      _map 0E94  
                    _isr 0DA8             ___flmul@aexp 004C             ___flmul@bexp 004D  
           ___flmul@sign 0047             ___flmul@temp 0052             ___flmul@prod 004E  
           ___fltol@exp1 006D                     l1901 0D77                     l1911 0D84  
                   l1903 0D7A                     l1921 0D95                     l1913 0D85  
                   l1905 0D7C                     l1931 0D9F                     l1923 0D99  
                   l1915 0D87                     l1907 0D80                     l1933 0DA2  
                   l1925 0D9A                     l1917 0D90                     l1909 0D82  
                   l1935 0DA5                     l1927 0D9B                     l1919 0D92  
                   l1937 0DA6                     l1929 0D9E                     l1891 0D6A  
                   l1955 07EB                     l1893 0D6D                     ?_map 00A5  
                   l1895 0D73                     l1887 0D5C                     l1897 0D74  
                   l1889 0D66                     l1899 0D75                     ?_isr 0070  
                   _CCPR 00B0                     u2810 0D8C                     u2811 0D8B  
                   i1l60 0DED                     i1l77 0F45                     _main 07EB  
                   map@x 006E                     btemp 007E                     start 0010  
        ___fldiv@new_exp 0032                    ??_map 007E                    ??_isr 00AB  
          ___fltol@sign1 006C          __end_of___fladd 060E                    ?_main 0070  
        __end_of___fldiv 07EB          __end_of___flmul 0386          __end_of___fltol 0E94  
                  _ANSEL 0188                    i1l512 066A                    i1l514 07EA  
                  i1l610 0FD5                    i1l602 0FAD                    i1l460 0490  
                  i1l356 0E7E                    i1l349 0E93                    i1l462 0467  
                  i1l534 07CE                    i1l359 0E93                    i1l456 03E9  
                  i1l536 07DE                    i1l528 075C                    i1l552 0385  
                  i1l481 057F                    i1l609 0FC9                    i1l490 05DF  
                  i1l571 0D49                    i1l564 0379                    i1l477 055B  
                  i1l469 060D                    i1l573 0D5B                    i1l558 02F1  
                  i1l487 05A1                    i1l498 0601                    i1l499 060D  
                  i1l596 0F68                    i1l598 0FFF                    _PORTA 0005  
                  _PORTC 0007                    _PORTD 0008                    _TRISA 0085  
                  _TRISC 0087                    _TRISD 0088                    map@x0 00A5  
                  map@x1 00A6                    map@y0 00A7                    map@y1 00A9  
                  _setup 0D5C                    pclath 000A                    status 0003  
                  wtemp0 007E          __initialization 0013             __end_of_main 07F4  
                 ??_main 00B0                   _CCPR1L 0015                   ?_setup 0070  
                 _ANSELH 0189                   i1l1401 03DE                   i1l1321 0D52  
                 i1l1313 0D36                   i1l1411 03F7                   i1l1403 03DF  
                 i1l1323 0D57                   i1l1315 0D38                   i1l1421 040B  
                 i1l1413 03FB                   i1l1405 03E1                   i1l1317 0D3F  
                 i1l1341 0E42                   i1l1333 0E12                   i1l1511 0586  
                 i1l1503 0571                   i1l1431 041F                   i1l1423 040F  
                 i1l1415 03FF                   i1l1407 03EF                   i1l1319 0D43  
                 i1l1343 0E46                   i1l1351 0E64                   i1l1335 0E37  
                 i1l1327 0DF8                   u200_20 060C                   u200_21 060B  
                 i1l1521 0594                   i1l1513 0588                   i1l1505 057A  
                 i1l1433 0423                   i1l1425 0413                   i1l1417 0403  
                 i1l1409 03F3                   i1l1441 0433                   i1l1601 0682  
                 i1l1361 0E88                   i1l1337 0E38                   i1l1329 0E09  
                 i1l1531 05AB                   i1l1523 0598                   i1l1515 058D  
                 i1l1507 057E                   i1l1451 0476                   i1l1443 0434  
                 i1l1435 0427                   i1l1427 0417                   i1l1419 0407  
                 i1l1371 0398                   i1l1363 0386                   i1l1611 0699  
                 i1l1339 0E40                   i1l1541 05E9                   i1l1533 05B9  
                 i1l1525 059E                   i1l1509 0583                   i1l1517 058F  
                 i1l1461 0494                   i1l1453 047A                   i1l1445 044B  
                 i1l1437 042B                   i1l1429 041B                   i1l1373 039D  
                 i1l1381 03AD                   i1l1365 038D                   i1l1621 06C5  
                 i1l1613 06AB                   i1l1605 068B                   i1l1701 002C  
                 i1l1357 0E6B                   i1l1349 0E4E                   i1l1551 05FD  
                 i1l1543 05F1                   i1l1535 05BD                   i1l1471 04BD  
                 i1l1519 0593                   i1l1463 0499                   i1l1455 047B  
                 i1l1447 046B                   i1l1439 042F                   i1l1391 03C7  
                 i1l1383 03B5                   i1l1375 03A2                   i1l1367 0393  
                 i1l1623 06CA                   i1l1631 06EA                   i1l1615 06B3  
                 i1l1607 0690                   i1l1711 0041                   i1l1703 0032  
                 i1l1359 0E83                   u201_20 061F                   i1l1553 0608  
                 i1l1545 05F6                   i1l1537 05DB                   i1l1529 05A6  
                 i1l1481 04D1                   i1l1473 04C1                   i1l1457 0484  
                 i1l1449 0474                   i1l1393 03CB                   i1l1385 03BA  
                 i1l1377 03AA                   i1l1369 0397                   i1l1641 0715  
                 i1l1633 06FC                   i1l1625 06DC                   i1l1617 06BB  
                 u201_21 061E                   i1l1561 061B                   i1l1801 02DA  
                 i1l1721 005E                   i1l1713 0049                   i1l1705 0036  
                 i1l1555 060C                   i1l1547 05F7                   i1l1539 05E4  
                 i1l1491 0539                   i1l1483 04DA                   i1l1475 04CA  
                 i1l1467 04A2                   i1l1459 0488                   i1l1395 03CC  
                 i1l1387 03C0                   i1l1379 03AB                   i1l1651 072D  
                 i1l1643 071D                   i1l1635 06FD                   i1l1627 06E0  
                 i1l1619 06C3                   i1l1571 0632                   i1l1563 061F  
                 i1l1811 0309                   i1l1803 02EE                   i1l1731 0075  
                 i1l1723 0062                   i1l1715 004B                   i1l1707 0037  
                 i1l1549 05FB                   i1l1493 053E                   i1l1477 04CC  
                 i1l1469 04B9                   i1l1485 04DF                   i1l1397 03D1  
                 i1l1389 03C1                   i1l1661 0745                   i1l1653 0736  
                 i1l1645 071F                   i1l1637 070B                   i1l1629 06E1  
                 i1l1581 0648                   i1l1573 0633                   i1l1565 0620  
                 i1l1557 060E                   i1l1821 0344                   i1l1813 030D  
                 i1l1733 0077                   i1l1725 0063                   i1l1717 0053  
                 i1l1709 003C                   i1l1487 04F5                   i1l1495 054D  
                 i1l1479 04D0                   i1l1399 03D6                   i1l1671 0774  
                 i1l1663 0759                   i1l1647 0728                   i1l1655 073C  
                 i1l1639 070F                   i1l1591 065F                   i1l1583 064C  
                 i1l1567 0625                   i1l1575 0635                   i1l1559 0615  
                 i1l1831 0371                   i1l1823 0353                   i1l1815 0326  
                 i1l1807 02F6                   i1l1751 00E8                   i1l1743 0092  
                 i1l1735 007F                   i1l1727 0068                   i1l1719 0058  
                 u202_20 0625                   i1l1497 0563                   i1l1489 0533  
                 i1l1681 07B2                   i1l1673 0778                   i1l1657 0740  
                 i1l1649 072C                   i1l1593 0660                   i1l1585 064D  
                 i1l1577 063D                   i1l1569 062A                   u202_21 0624  
                 i1l1833 0372                   i1l1825 035D                   i1l1809 02FB  
                 i1l1817 032C                   i1l1761 0165                   i1l1753 0114  
                 i1l1745 00A2                   i1l1737 0084                   i1l1729 006D  
                 i1l1841 0F4C                   i1l1499 0568                   i1l1691 07D8  
                 i1l1683 07C1                   i1l1675 0791                   i1l1667 0761  
                 i1l1659 0741                   i1l1587 0652                   i1l1595 0662  
                 i1l1579 0642                   i1l1835 037D                   i1l1827 035F  
                 i1l1819 0339                   i1l1771 01E5                   i1l1763 0182  
                 i1l1755 0130                   i1l1747 00AF                   i1l1739 0089  
                 i1l1851 0F79                   i1l1843 0F50                   i1l1693 07DA  
                 i1l1685 07C5                   i1l1669 0766                   i1l1677 0797  
                 u210_25 06CC                   i1l1597 0672                   i1l1589 0657  
                 i1l1829 036D                   i1l1781 029D                   i1l1773 0212  
                 i1l1765 0192                   i1l1757 014C                   i1l1749 00CC  
                 i1l1861 0FA4                   i1l1853 0F7E                   i1l1845 0F60  
                 i1l1941 0DA8                   i1l1687 07CD                   i1l1679 07A4  
                 i1l1599 067E                   i1l1791 02C2                   i1l1783 02A6  
                 i1l1775 0222                   i1l1767 01AF                   i1l1759 0155  
                 i1l1871 0FD7                   i1l1863 0FB4                   i1l1855 0F8B  
                 i1l1847 0F70                   i1l1839 0F47                   i1l1951 0DEC  
                 i1l1943 0DAE                   u203_20 062A                   i1l1689 07D4  
                 u203_21 0629                   i1l1793 02CB                   i1l1785 02B4  
                 i1l1777 024F                   i1l1769 01C8                   i1l1873 0FED  
                 i1l1865 0FBF                   i1l1857 0F92                   i1l1945 0DB4  
                 i1l1787 02BD                   i1l1795 02D1                   i1l1779 0275  
                 i1l1699 0025                   i1l1875 0FF2                   i1l1867 0FC3  
                 i1l1859 0F96                   i1l1883 0E97                   i1l1947 0DCD  
                 u211_25 06D5                   i1l1797 02D5                   i1l1789 02C1  
                 i1l1877 0FF6                   i1l1869 0FCD                   i1l1949 0DDB  
                 i1l1799 02D6                   i1l1879 0FF7                   u220_20 0740  
                 u212_20 06E0                   u204_20 064C                   u220_21 073F  
                 u212_21 06DF                   u204_21 064B                   u221_20 0745  
                 u205_20 0652                   u221_21 0744                   u205_21 0651  
                 u213_25 06E3                   u222_20 0759                   u214_20 06FC  
                 u206_20 0657                   u142_20 0D43                   u230_20 0036  
                 u150_20 0E63                   u222_21 0758                   u214_21 06FB  
                 u206_21 0656                   u142_21 0D42                   u230_21 0035  
                 u150_21 0E62                   u214_25 06F8                   u223_20 0760  
                 u215_20 0715                   u207_20 0672                   u231_20 003C  
                 u151_20 0E6A                   u223_21 075F                   u215_21 0714  
                 u207_21 0671                   u231_21 003B                   u151_21 0E69  
                 u143_25 0D4A                   u160_20 03D1                   u224_20 0766  
                 u216_20 071D                   u208_20 0690                   u144_20 0D57  
                 u232_20 0041                   u160_21 03D0                   u224_21 0765  
                 u216_21 071C                   u208_21 068F                   u144_21 0D56  
                 u240_21 0122                   u232_21 0040                   u240_22 0129  
                 u240_23 0130                   u152_25 0E6F                   u161_20 03D6  
                 u225_20 0778                   u209_20 06CA                   u233_20 0062  
                 u153_20 0E83                   u145_20 0E09                   u161_21 03D5  
                 u225_21 0777                   u209_21 06C9                   u241_21 013E  
                 u233_21 0061                   u153_21 0E82                   u145_21 0E08  
                 u241_22 0145                   u241_23 014C                   u217_25 0721  
                 u170_20 0490                   u162_20 03EF                   u226_20 0787  
                 u218_20 072C                   u234_20 0068                   u154_20 0E88  
                 u146_20 0E2E                   u170_21 048F                   u162_21 03EE  
                 u218_21 072B                   u250_21 0267                   u234_21 0067  
                 u154_21 0E87                   u250_22 026E                   u250_23 0275  
                 u226_25 0782                   u242_25 014E                   u146_25 0E29  
                 u171_20 0494                   u163_20 03F3                   u155_20 0397  
                 u227_20 07A4                   u251_20 0283                   u235_20 006D  
                 u147_20 0E46                   u171_21 0493                   u163_21 03F2  
                 u155_21 0396                   u227_21 07A3                   u243_21 0174  
                 u235_21 006C                   u147_21 0E45                   u243_22 017B  
                 u243_23 0182                   u227_25 07A0                   u219_25 072F  
                 u251_25 027E                   u180_20 0520                   u172_20 0499  
                 u164_20 044B                   u156_20 039D                   u228_20 07C1  
                 u260_20 02F5                   u236_20 0084                   u148_20 0E4D  
                 u180_21 0521                   u172_21 0498                   u164_21 044A  
                 u156_21 039C                   u228_21 07C0                   u260_21 02F4  
                 u252_21 028F                   u244_21 01A1                   u236_21 0083  
                 u148_21 0E4C                   u180_22 0526                   u252_22 0296  
                 u244_22 01A8                   u180_23 0527                   u252_23 029D  
                 u244_23 01AF                   u164_25 0447                   u228_25 07BD  
                 u181_20 053E                   u165_20 0456                   u157_20 03A2  
                 u229_20 07D8                   u261_20 02FB                   u237_20 0089  
                 u181_21 053D                   u173_21 04AB                   u165_21 0454  
                 u157_21 03A1                   u229_21 07D7                   u261_21 02FA  
                 u237_21 0088                   u173_22 04B2                   u173_23 04B9  
                 u253_25 029F                   u245_25 01B1                   u149_25 0E4F  
                 u190_20 059E                   u182_20 0563                   u174_20 04BD  
                 u166_20 0457                   u158_20 03C0                   u262_20 030D  
                 u190_21 059D                   u182_21 0562                   u174_21 04BC  
                 u158_21 03BF                   u262_21 030C                   u246_21 01D7  
                 u238_21 00DA                   u246_22 01DE                   u238_22 00E1  
                 u246_23 01E5                   u238_23 00E8                   u254_25 02B6  
                 u270_25 0F83                   u191_20 05A5                   u183_20 0568  
                 u175_20 04C1                   u167_20 046B                   u159_20 03CB  
                 u263_20 031C                   u255_20 02C1                   u271_20 0F91  
                 u191_21 05A4                   u183_21 0567                   u175_21 04C0  
                 u167_21 046A                   u159_21 03CA                   u255_21 02C0  
                 u247_21 0204                   u239_21 00F6                   u271_21 0F90  
                 u247_22 020B                   u239_22 00FD                   u247_23 0212  
                 u239_23 0104                   u263_25 0317                   u192_20 05AB  
                 u176_20 04D0                   u168_20 047A                   u264_20 0339  
                 u280_20 0FF6                   u192_21 05AA                   u176_21 04CF  
                 u168_21 0479                   u264_21 0338                   u248_21 0231  
                 u280_21 0FF5                   u248_22 0238                   u248_23 023F  
                 u184_25 0573                   u264_25 0335                   u256_25 02C4  
                 u272_25 0FA5                   u193_20 05BD                   u185_20 057E  
                 u265_20 0353                   u257_20 02D5                   u249_20 025B  
                 u273_20 0FB3                   u193_21 05BC                   u185_21 057D  
                 u265_21 0352                   u257_21 02D4                   u273_21 0FB2  
                 u177_25 04D3                   u169_25 047D                   u265_25 034F  
                 u249_25 0256                   u194_20 05CC                   u186_20 0583  
                 u178_20 04F5                   u266_20 0371                   u258_20 02DA  
                 u282_20 0DAE                   u186_21 0582                   u178_21 04F4  
                 u266_21 0370                   u258_21 02D9                   u282_21 0DAD  
                 u178_23 04F1                   u194_25 05C7                   u274_25 0FB8  
                 u195_20 05DB                   u187_20 058D                   u259_20 02EE  
                 u275_20 0FC3                   u267_20 0F4C                   u195_21 05DA  
                 u187_21 058C                   u179_21 050C                   u259_21 02ED  
                 u275_21 0FC2                   u267_21 0F4B                   u179_22 050D  
                 u179_23 0512                   u179_24 0513                   u179_25 0518  
                 u179_26 0519                   u196_20 05E4                   u188_20 0593  
                 u276_20 0FC9                   u268_20 0F50                   u196_21 05E3  
                 u188_21 0592                   u276_21 0FC8                   u268_21 0F4F  
                 u197_20 05E9                   u189_20 0598                   u277_20 0FCD  
                 u269_20 0F70                   u197_21 05E8                   u189_21 0597  
                 u277_21 0FCC                   u269_21 0F6F                   u198_20 05F6  
                 u278_20 0FE2                   u198_21 05F5                   u278_25 0FDD  
                 u199_20 05FB                   u279_20 0FF2                   u199_21 05FA  
                 u279_21 0FF1                   _SSPBUF 0013         __end_of___xxtofl 1000  
              ??___fladd 005C                ??___fldiv 0028                ??___flmul 0042  
              ??___fltol 00A0                   saved_w 007E             ___xxtofl@arg 007A  
           ___xxtofl@exp 0079             ___xxtofl@val 0070  __end_of__initialization 0021  
             ___fltol@f1 0068           __pcstackCOMMON 0070             __pidataBANK1 07F4  
          __end_of_setup 0DA8                  ??_setup 00B0               __pbssBANK0 006F  
             __pbssBANK1 00B0        __end_of__Umul8_16 0D5C               __pmaintext 07EB  
             __pintentry 0004                  _CCP1CON 0017                ?___xxtofl 0070  
             _cont_slave 00B3                  ___fladd 0386                  ___fldiv 060E  
                ___flmul 0025                  ___fltol 0DF8                  __ptext1 0D5C  
                __ptext2 0DA8                  __ptext3 0E94                  __ptext4 0F46  
                __ptext5 0DF8                  __ptext6 0025                  __ptext7 0D35  
                __ptext8 060E                  __ptext9 0386                _T2CONbits 0012  
             ??___xxtofl 0074     end_of_initialization 0021              ___fladd@grs 0067  
          ___xxtofl@sign 0078                _TRISCbits 0087              ___fldiv@grs 0034  
            ___fldiv@rem 002D              ___flmul@grs 0048              _CCP1CONbits 0017  
    start_initialization 0013              __end_of_map 0F46              __end_of_isr 0DF8  
              __Umul8_16 0D35              __pdataBANK1 00B3                ___fladd@a 0058  
              ___fladd@b 0054                ___fldiv@a 0020                ___fldiv@b 0024  
              ___flmul@a 003E                ___flmul@b 003A                ___latbits 0002  
          __pcstackBANK0 0020            __pcstackBANK1 00A0                 ?___fladd 0054  
               ?___fldiv 0020                 ?___flmul 003A                 ?___fltol 0068  
             ?__Umul8_16 0070        interrupt_function 0004                 _PIE1bits 008C  
               _PIR1bits 000C              _cont_master 006F              ??__Umul8_16 0072  
               ___xxtofl 0F46                 _val_temp 00B2               _INTCONbits 000B  
               intlevel1 0000               _OSCCONbits 008F   __Umul8_16@multiplicand 0070  
          ___fladd@signs 0064             ___fladd@aexp 0065             ___fladd@bexp 0066  
   __Umul8_16@multiplier 0078               _SSPCONbits 0014        __Umul8_16@product 0074  
